
libtest2.so:     file format elf32-i386


Disassembly of section .init:

00000328 <_init>:
 328:	53                   	push   %ebx
 329:	83 ec 08             	sub    $0x8,%esp
 32c:	e8 00 00 00 00       	call   331 <_init+0x9>
 331:	5b                   	pop    %ebx
 332:	81 c3 c3 1c 00 00    	add    $0x1cc3,%ebx
 338:	8b 83 f8 ff ff ff    	mov    -0x8(%ebx),%eax
 33e:	85 c0                	test   %eax,%eax
 340:	74 05                	je     347 <_init+0x1f>
 342:	e8 49 00 00 00       	call   390 <__gmon_start__@plt>
 347:	e8 d4 00 00 00       	call   420 <frame_dummy>
 34c:	e8 3f 01 00 00       	call   490 <__do_global_ctors_aux>
 351:	83 c4 08             	add    $0x8,%esp
 354:	5b                   	pop    %ebx
 355:	c3                   	ret    

Disassembly of section .plt:

00000360 <__cxa_finalize@plt-0x10>:
 360:	ff b3 04 00 00 00    	pushl  0x4(%ebx)
 366:	ff a3 08 00 00 00    	jmp    *0x8(%ebx)
 36c:	00 00                	add    %al,(%eax)
	...

00000370 <__cxa_finalize@plt>:
 370:	ff a3 0c 00 00 00    	jmp    *0xc(%ebx)
 376:	68 00 00 00 00       	push   $0x0
 37b:	e9 e0 ff ff ff       	jmp    360 <_init+0x38>

00000380 <puts@plt>:
 380:	ff a3 10 00 00 00    	jmp    *0x10(%ebx)
 386:	68 08 00 00 00       	push   $0x8
 38b:	e9 d0 ff ff ff       	jmp    360 <_init+0x38>

00000390 <__gmon_start__@plt>:
 390:	ff a3 14 00 00 00    	jmp    *0x14(%ebx)
 396:	68 10 00 00 00       	push   $0x10
 39b:	e9 c0 ff ff ff       	jmp    360 <_init+0x38>

Disassembly of section .text:

000003a0 <__do_global_dtors_aux>:
 3a0:	55                   	push   %ebp
 3a1:	89 e5                	mov    %esp,%ebp
 3a3:	56                   	push   %esi
 3a4:	53                   	push   %ebx
 3a5:	e8 ad 00 00 00       	call   457 <__i686.get_pc_thunk.bx>
 3aa:	81 c3 4a 1c 00 00    	add    $0x1c4a,%ebx
 3b0:	83 ec 10             	sub    $0x10,%esp
 3b3:	80 bb 1c 00 00 00 00 	cmpb   $0x0,0x1c(%ebx)
 3ba:	75 5d                	jne    419 <__do_global_dtors_aux+0x79>
 3bc:	8b 83 f4 ff ff ff    	mov    -0xc(%ebx),%eax
 3c2:	85 c0                	test   %eax,%eax
 3c4:	74 0e                	je     3d4 <__do_global_dtors_aux+0x34>
 3c6:	8b 83 18 00 00 00    	mov    0x18(%ebx),%eax
 3cc:	89 04 24             	mov    %eax,(%esp)
 3cf:	e8 9c ff ff ff       	call   370 <__cxa_finalize@plt>
 3d4:	8b 83 20 00 00 00    	mov    0x20(%ebx),%eax
 3da:	8d b3 2c ff ff ff    	lea    -0xd4(%ebx),%esi
 3e0:	8d 93 28 ff ff ff    	lea    -0xd8(%ebx),%edx
 3e6:	29 d6                	sub    %edx,%esi
 3e8:	c1 fe 02             	sar    $0x2,%esi
 3eb:	83 ee 01             	sub    $0x1,%esi
 3ee:	39 f0                	cmp    %esi,%eax
 3f0:	73 20                	jae    412 <__do_global_dtors_aux+0x72>
 3f2:	8d b6 00 00 00 00    	lea    0x0(%esi),%esi
 3f8:	83 c0 01             	add    $0x1,%eax
 3fb:	89 83 20 00 00 00    	mov    %eax,0x20(%ebx)
 401:	ff 94 83 28 ff ff ff 	call   *-0xd8(%ebx,%eax,4)
 408:	8b 83 20 00 00 00    	mov    0x20(%ebx),%eax
 40e:	39 f0                	cmp    %esi,%eax
 410:	72 e6                	jb     3f8 <__do_global_dtors_aux+0x58>
 412:	c6 83 1c 00 00 00 01 	movb   $0x1,0x1c(%ebx)
 419:	83 c4 10             	add    $0x10,%esp
 41c:	5b                   	pop    %ebx
 41d:	5e                   	pop    %esi
 41e:	5d                   	pop    %ebp
 41f:	c3                   	ret    

00000420 <frame_dummy>:
 420:	55                   	push   %ebp
 421:	89 e5                	mov    %esp,%ebp
 423:	53                   	push   %ebx
 424:	e8 2e 00 00 00       	call   457 <__i686.get_pc_thunk.bx>
 429:	81 c3 cb 1b 00 00    	add    $0x1bcb,%ebx
 42f:	83 ec 14             	sub    $0x14,%esp
 432:	8b 93 30 ff ff ff    	mov    -0xd0(%ebx),%edx
 438:	85 d2                	test   %edx,%edx
 43a:	74 15                	je     451 <frame_dummy+0x31>
 43c:	8b 83 fc ff ff ff    	mov    -0x4(%ebx),%eax
 442:	85 c0                	test   %eax,%eax
 444:	74 0b                	je     451 <frame_dummy+0x31>
 446:	8d 93 30 ff ff ff    	lea    -0xd0(%ebx),%edx
 44c:	89 14 24             	mov    %edx,(%esp)
 44f:	ff d0                	call   *%eax
 451:	83 c4 14             	add    $0x14,%esp
 454:	5b                   	pop    %ebx
 455:	5d                   	pop    %ebp
 456:	c3                   	ret    

00000457 <__i686.get_pc_thunk.bx>:
 457:	8b 1c 24             	mov    (%esp),%ebx
 45a:	c3                   	ret    
 45b:	90                   	nop

0000045c <libtest2>:
 45c:	55                   	push   %ebp
 45d:	89 e5                	mov    %esp,%ebp
 45f:	53                   	push   %ebx
 460:	83 ec 14             	sub    $0x14,%esp
 463:	e8 ef ff ff ff       	call   457 <__i686.get_pc_thunk.bx>
 468:	81 c3 8c 1b 00 00    	add    $0x1b8c,%ebx
 46e:	8d 83 f0 e4 ff ff    	lea    -0x1b10(%ebx),%eax
 474:	89 04 24             	mov    %eax,(%esp)
 477:	e8 04 ff ff ff       	call   380 <puts@plt>
 47c:	8d 83 1c e5 ff ff    	lea    -0x1ae4(%ebx),%eax
 482:	89 04 24             	mov    %eax,(%esp)
 485:	e8 f6 fe ff ff       	call   380 <puts@plt>
 48a:	83 c4 14             	add    $0x14,%esp
 48d:	5b                   	pop    %ebx
 48e:	5d                   	pop    %ebp
 48f:	c3                   	ret    

00000490 <__do_global_ctors_aux>:
 490:	55                   	push   %ebp
 491:	89 e5                	mov    %esp,%ebp
 493:	56                   	push   %esi
 494:	53                   	push   %ebx
 495:	e8 bd ff ff ff       	call   457 <__i686.get_pc_thunk.bx>
 49a:	81 c3 5a 1b 00 00    	add    $0x1b5a,%ebx
 4a0:	8b 83 20 ff ff ff    	mov    -0xe0(%ebx),%eax
 4a6:	83 f8 ff             	cmp    $0xffffffff,%eax
 4a9:	74 19                	je     4c4 <__do_global_ctors_aux+0x34>
 4ab:	8d b3 20 ff ff ff    	lea    -0xe0(%ebx),%esi
 4b1:	8d b4 26 00 00 00 00 	lea    0x0(%esi,%eiz,1),%esi
 4b8:	83 ee 04             	sub    $0x4,%esi
 4bb:	ff d0                	call   *%eax
 4bd:	8b 06                	mov    (%esi),%eax
 4bf:	83 f8 ff             	cmp    $0xffffffff,%eax
 4c2:	75 f4                	jne    4b8 <__do_global_ctors_aux+0x28>
 4c4:	5b                   	pop    %ebx
 4c5:	5e                   	pop    %esi
 4c6:	5d                   	pop    %ebp
 4c7:	c3                   	ret    

Disassembly of section .fini:

000004c8 <_fini>:
 4c8:	53                   	push   %ebx
 4c9:	83 ec 08             	sub    $0x8,%esp
 4cc:	e8 00 00 00 00       	call   4d1 <_fini+0x9>
 4d1:	5b                   	pop    %ebx
 4d2:	81 c3 23 1b 00 00    	add    $0x1b23,%ebx
 4d8:	e8 c3 fe ff ff       	call   3a0 <__do_global_dtors_aux>
 4dd:	83 c4 08             	add    $0x8,%esp
 4e0:	5b                   	pop    %ebx
 4e1:	c3                   	ret    
