
libtest1.so:     file format elf32-i386


Disassembly of section .note.gnu.build-id:

00000114 <.note.gnu.build-id>:
 114:	04 00                	add    $0x0,%al
 116:	00 00                	add    %al,(%eax)
 118:	14 00                	adc    $0x0,%al
 11a:	00 00                	add    %al,(%eax)
 11c:	03 00                	add    (%eax),%eax
 11e:	00 00                	add    %al,(%eax)
 120:	47                   	inc    %edi
 121:	4e                   	dec    %esi
 122:	55                   	push   %ebp
 123:	00 62 bd             	add    %ah,-0x43(%edx)
 126:	b1 46                	mov    $0x46,%cl
 128:	e1 4f                	loope  179 <_init-0x1c7>
 12a:	79 58                	jns    184 <_init-0x1bc>
 12c:	5e                   	pop    %esi
 12d:	1d 4e 51 58 81       	sbb    $0x8158514e,%eax
 132:	36                   	ss
 133:	e7 35                	out    %eax,$0x35
 135:	60                   	pusha  
 136:	48                   	dec    %eax
 137:	1b                   	.byte 0x1b

Disassembly of section .gnu.hash:

00000138 <.gnu.hash>:
 138:	03 00                	add    (%eax),%eax
 13a:	00 00                	add    %al,(%eax)
 13c:	05 00 00 00 02       	add    $0x2000000,%eax
 141:	00 00                	add    %al,(%eax)
 143:	00 06                	add    %al,(%esi)
 145:	00 00                	add    %al,(%eax)
 147:	00 88 20 20 09 00    	add    %cl,0x92020(%eax)
 14d:	c4 40 09             	les    0x9(%eax),%eax
 150:	05 00 00 00 07       	add    $0x7000000,%eax
 155:	00 00                	add    %al,(%eax)
 157:	00 0a                	add    %cl,(%edx)
 159:	00 00                	add    %al,(%eax)
 15b:	00 42 45             	add    %al,0x45(%edx)
 15e:	d5 ec                	aad    $0xec
 160:	bb e3 92 7c cc       	mov    $0xcc7c92e3,%ebx
 165:	06                   	push   %es
 166:	22 a7 d8 71 58 1c    	and    0x1c5871d8(%edi),%ah
 16c:	b9 8d f1 0e eb       	mov    $0xeb0ef18d,%ecx
 171:	d3 ef                	shr    %cl,%edi
 173:	0e                   	push   %cs

Disassembly of section .dynsym:

00000174 <.dynsym>:
	...
 184:	1c 00                	sbb    $0x0,%al
	...
 18e:	00 00                	add    %al,(%eax)
 190:	22 00                	and    (%eax),%al
 192:	00 00                	add    %al,(%eax)
 194:	48                   	dec    %eax
	...
 19d:	00 00                	add    %al,(%eax)
 19f:	00 12                	add    %dl,(%edx)
 1a1:	00 00                	add    %al,(%eax)
 1a3:	00 01                	add    %al,(%ecx)
	...
 1ad:	00 00                	add    %al,(%eax)
 1af:	00 20                	add    %ah,(%eax)
 1b1:	00 00                	add    %al,(%eax)
 1b3:	00 2b                	add    %ch,(%ebx)
	...
 1bd:	00 00                	add    %al,(%eax)
 1bf:	00 20                	add    %ah,(%eax)
 1c1:	00 00                	add    %al,(%eax)
 1c3:	00 57 00             	add    %dl,0x0(%edi)
 1c6:	00 00                	add    %al,(%eax)
 1c8:	0c 20                	or     $0x20,%al
 1ca:	00 00                	add    %al,(%eax)
 1cc:	00 00                	add    %al,(%eax)
 1ce:	00 00                	add    %al,(%eax)
 1d0:	10 00                	adc    %al,(%eax)
 1d2:	f1                   	icebp  
 1d3:	ff 6a 00             	ljmp   *0x0(%edx)
 1d6:	00 00                	add    %al,(%eax)
 1d8:	14 20                	adc    $0x20,%al
 1da:	00 00                	add    %al,(%eax)
 1dc:	00 00                	add    %al,(%eax)
 1de:	00 00                	add    %al,(%eax)
 1e0:	10 00                	adc    %al,(%eax)
 1e2:	f1                   	icebp  
 1e3:	ff                   	(bad)  
 1e4:	3f                   	aas    
 1e5:	00 00                	add    %al,(%eax)
 1e7:	00 5c 04 00          	add    %bl,0x0(%esp,%eax,1)
 1eb:	00 20                	add    %ah,(%eax)
 1ed:	00 00                	add    %al,(%eax)
 1ef:	00 12                	add    %dl,(%edx)
 1f1:	00 0b                	add    %cl,(%ebx)
 1f3:	00 5e 00             	add    %bl,0x0(%esi)
 1f6:	00 00                	add    %al,(%eax)
 1f8:	0c 20                	or     $0x20,%al
 1fa:	00 00                	add    %al,(%eax)
 1fc:	00 00                	add    %al,(%eax)
 1fe:	00 00                	add    %al,(%eax)
 200:	10 00                	adc    %al,(%eax)
 202:	f1                   	icebp  
 203:	ff 10                	call   *(%eax)
 205:	00 00                	add    %al,(%eax)
 207:	00 40 03             	add    %al,0x3(%eax)
 20a:	00 00                	add    %al,(%eax)
 20c:	00 00                	add    %al,(%eax)
 20e:	00 00                	add    %al,(%eax)
 210:	12 00                	adc    (%eax),%al
 212:	09 00                	or     %eax,(%eax)
 214:	16                   	push   %ss
 215:	00 00                	add    %al,(%eax)
 217:	00 b8 04 00 00 00    	add    %bh,0x4(%eax)
 21d:	00 00                	add    %al,(%eax)
 21f:	00 12                	add    %dl,(%edx)
 221:	00 0c 00             	add    %cl,(%eax,%eax,1)

Disassembly of section .dynstr:

00000224 <.dynstr>:
 224:	00 5f 5f             	add    %bl,0x5f(%edi)
 227:	67 6d                	insl   (%dx),%es:(%di)
 229:	6f                   	outsl  %ds:(%esi),(%dx)
 22a:	6e                   	outsb  %ds:(%esi),(%dx)
 22b:	5f                   	pop    %edi
 22c:	73 74                	jae    2a2 <_init-0x9e>
 22e:	61                   	popa   
 22f:	72 74                	jb     2a5 <_init-0x9b>
 231:	5f                   	pop    %edi
 232:	5f                   	pop    %edi
 233:	00 5f 69             	add    %bl,0x69(%edi)
 236:	6e                   	outsb  %ds:(%esi),(%dx)
 237:	69 74 00 5f 66 69 6e 	imul   $0x696e6966,0x5f(%eax,%eax,1),%esi
 23e:	69 
 23f:	00 5f 5f             	add    %bl,0x5f(%edi)
 242:	63 78 61             	arpl   %di,0x61(%eax)
 245:	5f                   	pop    %edi
 246:	66 69 6e 61 6c 69    	imul   $0x696c,0x61(%esi),%bp
 24c:	7a 65                	jp     2b3 <_init-0x8d>
 24e:	00 5f 4a             	add    %bl,0x4a(%edi)
 251:	76 5f                	jbe    2b2 <_init-0x8e>
 253:	52                   	push   %edx
 254:	65 67 69 73 74 65 72 	imul   $0x6c437265,%gs:0x74(%bp,%di),%esi
 25b:	43 6c 
 25d:	61                   	popa   
 25e:	73 73                	jae    2d3 <_init-0x6d>
 260:	65                   	gs
 261:	73 00                	jae    263 <_init-0xdd>
 263:	6c                   	insb   (%dx),%es:(%edi)
 264:	69 62 74 65 73 74 31 	imul   $0x31747365,0x74(%edx),%esp
 26b:	00 70 75             	add    %dh,0x75(%eax)
 26e:	74 73                	je     2e3 <_init-0x5d>
 270:	00 6c 69 62          	add    %ch,0x62(%ecx,%ebp,2)
 274:	63 2e                	arpl   %bp,(%esi)
 276:	73 6f                	jae    2e7 <_init-0x59>
 278:	2e 36 00 5f 65       	cs add %bl,%cs:%ss:0x65(%edi)
 27d:	64                   	fs
 27e:	61                   	popa   
 27f:	74 61                	je     2e2 <_init-0x5e>
 281:	00 5f 5f             	add    %bl,0x5f(%edi)
 284:	62 73 73             	bound  %esi,0x73(%ebx)
 287:	5f                   	pop    %edi
 288:	73 74                	jae    2fe <_init-0x42>
 28a:	61                   	popa   
 28b:	72 74                	jb     301 <_init-0x3f>
 28d:	00 5f 65             	add    %bl,0x65(%edi)
 290:	6e                   	outsb  %ds:(%esi),(%dx)
 291:	64 00 47 4c          	add    %al,%fs:0x4c(%edi)
 295:	49                   	dec    %ecx
 296:	42                   	inc    %edx
 297:	43                   	inc    %ebx
 298:	5f                   	pop    %edi
 299:	32 2e                	xor    (%esi),%ch
 29b:	30 00                	xor    %al,(%eax)
 29d:	47                   	inc    %edi
 29e:	4c                   	dec    %esp
 29f:	49                   	dec    %ecx
 2a0:	42                   	inc    %edx
 2a1:	43                   	inc    %ebx
 2a2:	5f                   	pop    %edi
 2a3:	32 2e                	xor    (%esi),%ch
 2a5:	31 2e                	xor    %ebp,(%esi)
 2a7:	33 00                	xor    (%eax),%eax

Disassembly of section .gnu.version:

000002aa <.gnu.version>:
 2aa:	00 00                	add    %al,(%eax)
 2ac:	02 00                	add    (%eax),%al
 2ae:	03 00                	add    (%eax),%eax
 2b0:	00 00                	add    %al,(%eax)
 2b2:	00 00                	add    %al,(%eax)
 2b4:	01 00                	add    %eax,(%eax)
 2b6:	01 00                	add    %eax,(%eax)
 2b8:	01 00                	add    %eax,(%eax)
 2ba:	01 00                	add    %eax,(%eax)
 2bc:	01 00                	add    %eax,(%eax)
 2be:	01 00                	add    %eax,(%eax)

Disassembly of section .gnu.version_r:

000002c0 <.gnu.version_r>:
 2c0:	01 00                	add    %eax,(%eax)
 2c2:	02 00                	add    (%eax),%al
 2c4:	4d                   	dec    %ebp
 2c5:	00 00                	add    %al,(%eax)
 2c7:	00 10                	add    %dl,(%eax)
 2c9:	00 00                	add    %al,(%eax)
 2cb:	00 00                	add    %al,(%eax)
 2cd:	00 00                	add    %al,(%eax)
 2cf:	00 10                	add    %dl,(%eax)
 2d1:	69 69 0d 00 00 03 00 	imul   $0x30000,0xd(%ecx),%ebp
 2d8:	6f                   	outsl  %ds:(%esi),(%dx)
 2d9:	00 00                	add    %al,(%eax)
 2db:	00 10                	add    %dl,(%eax)
 2dd:	00 00                	add    %al,(%eax)
 2df:	00 73 1f             	add    %dh,0x1f(%ebx)
 2e2:	69 09 00 00 02 00    	imul   $0x20000,(%ecx),%ecx
 2e8:	79 00                	jns    2ea <_init-0x56>
 2ea:	00 00                	add    %al,(%eax)
 2ec:	00 00                	add    %al,(%eax)
	...

Disassembly of section .rel.dyn:

000002f0 <.rel.dyn>:
 2f0:	65                   	gs
 2f1:	04 00                	add    $0x0,%al
 2f3:	00 08                	add    %cl,(%eax)
 2f5:	00 00                	add    %al,(%eax)
 2f7:	00 71 04             	add    %dh,0x4(%ecx)
 2fa:	00 00                	add    %al,(%eax)
 2fc:	08 00                	or     %al,(%eax)
 2fe:	00 00                	add    %al,(%eax)
 300:	08 20                	or     %ah,(%eax)
 302:	00 00                	add    %al,(%eax)
 304:	08 00                	or     %al,(%eax)
 306:	00 00                	add    %al,(%eax)
 308:	6a 04                	push   $0x4
 30a:	00 00                	add    %al,(%eax)
 30c:	02 02                	add    (%edx),%al
 30e:	00 00                	add    %al,(%eax)
 310:	76 04                	jbe    316 <_init-0x2a>
 312:	00 00                	add    %al,(%eax)
 314:	02 02                	add    (%edx),%al
 316:	00 00                	add    %al,(%eax)
 318:	e8 1f 00 00 06       	call   600033c <_end+0x5ffe328>
 31d:	01 00                	add    %eax,(%eax)
 31f:	00 ec                	add    %ch,%ah
 321:	1f                   	pop    %ds
 322:	00 00                	add    %al,(%eax)
 324:	06                   	push   %es
 325:	03 00                	add    (%eax),%eax
 327:	00 f0                	add    %dh,%al
 329:	1f                   	pop    %ds
 32a:	00 00                	add    %al,(%eax)
 32c:	06                   	push   %es
 32d:	04 00                	add    $0x0,%al
	...

Disassembly of section .rel.plt:

00000330 <.rel.plt>:
 330:	00 20                	add    %ah,(%eax)
 332:	00 00                	add    %al,(%eax)
 334:	07                   	pop    %es
 335:	01 00                	add    %eax,(%eax)
 337:	00 04 20             	add    %al,(%eax,%eiz,1)
 33a:	00 00                	add    %al,(%eax)
 33c:	07                   	pop    %es
 33d:	03 00                	add    (%eax),%eax
	...

Disassembly of section .init:

00000340 <_init>:
 340:	53                   	push   %ebx
 341:	83 ec 08             	sub    $0x8,%esp
 344:	e8 00 00 00 00       	call   349 <_init+0x9>
 349:	5b                   	pop    %ebx
 34a:	81 c3 ab 1c 00 00    	add    $0x1cab,%ebx
 350:	8b 83 f8 ff ff ff    	mov    -0x8(%ebx),%eax
 356:	85 c0                	test   %eax,%eax
 358:	74 05                	je     35f <_init+0x1f>
 35a:	e8 31 00 00 00       	call   390 <__gmon_start__@plt>
 35f:	e8 bc 00 00 00       	call   420 <frame_dummy>
 364:	e8 17 01 00 00       	call   480 <__do_global_ctors_aux>
 369:	83 c4 08             	add    $0x8,%esp
 36c:	5b                   	pop    %ebx
 36d:	c3                   	ret    

Disassembly of section .plt:

00000370 <__cxa_finalize@plt-0x10>:
 370:	ff b3 04 00 00 00    	pushl  0x4(%ebx)
 376:	ff a3 08 00 00 00    	jmp    *0x8(%ebx)
 37c:	00 00                	add    %al,(%eax)
	...

00000380 <__cxa_finalize@plt>:
 380:	ff a3 0c 00 00 00    	jmp    *0xc(%ebx)
 386:	68 00 00 00 00       	push   $0x0
 38b:	e9 e0 ff ff ff       	jmp    370 <_init+0x30>

00000390 <__gmon_start__@plt>:
 390:	ff a3 10 00 00 00    	jmp    *0x10(%ebx)
 396:	68 08 00 00 00       	push   $0x8
 39b:	e9 d0 ff ff ff       	jmp    370 <_init+0x30>

Disassembly of section .text:

000003a0 <__do_global_dtors_aux>:
 3a0:	55                   	push   %ebp
 3a1:	89 e5                	mov    %esp,%ebp
 3a3:	56                   	push   %esi
 3a4:	53                   	push   %ebx
 3a5:	e8 ad 00 00 00       	call   457 <__i686.get_pc_thunk.bx>
 3aa:	81 c3 4a 1c 00 00    	add    $0x1c4a,%ebx
 3b0:	83 ec 10             	sub    $0x10,%esp
 3b3:	80 bb 18 00 00 00 00 	cmpb   $0x0,0x18(%ebx)
 3ba:	75 5d                	jne    419 <__do_global_dtors_aux+0x79>
 3bc:	8b 83 f4 ff ff ff    	mov    -0xc(%ebx),%eax
 3c2:	85 c0                	test   %eax,%eax
 3c4:	74 0e                	je     3d4 <__do_global_dtors_aux+0x34>
 3c6:	8b 83 14 00 00 00    	mov    0x14(%ebx),%eax
 3cc:	89 04 24             	mov    %eax,(%esp)
 3cf:	e8 ac ff ff ff       	call   380 <__cxa_finalize@plt>
 3d4:	8b 83 1c 00 00 00    	mov    0x1c(%ebx),%eax
 3da:	8d b3 24 ff ff ff    	lea    -0xdc(%ebx),%esi
 3e0:	8d 93 20 ff ff ff    	lea    -0xe0(%ebx),%edx
 3e6:	29 d6                	sub    %edx,%esi
 3e8:	c1 fe 02             	sar    $0x2,%esi
 3eb:	83 ee 01             	sub    $0x1,%esi
 3ee:	39 f0                	cmp    %esi,%eax
 3f0:	73 20                	jae    412 <__do_global_dtors_aux+0x72>
 3f2:	8d b6 00 00 00 00    	lea    0x0(%esi),%esi
 3f8:	83 c0 01             	add    $0x1,%eax
 3fb:	89 83 1c 00 00 00    	mov    %eax,0x1c(%ebx)
 401:	ff 94 83 20 ff ff ff 	call   *-0xe0(%ebx,%eax,4)
 408:	8b 83 1c 00 00 00    	mov    0x1c(%ebx),%eax
 40e:	39 f0                	cmp    %esi,%eax
 410:	72 e6                	jb     3f8 <__do_global_dtors_aux+0x58>
 412:	c6 83 18 00 00 00 01 	movb   $0x1,0x18(%ebx)
 419:	83 c4 10             	add    $0x10,%esp
 41c:	5b                   	pop    %ebx
 41d:	5e                   	pop    %esi
 41e:	5d                   	pop    %ebp
 41f:	c3                   	ret    

00000420 <frame_dummy>:
 420:	55                   	push   %ebp
 421:	89 e5                	mov    %esp,%ebp
 423:	53                   	push   %ebx
 424:	e8 2e 00 00 00       	call   457 <__i686.get_pc_thunk.bx>
 429:	81 c3 cb 1b 00 00    	add    $0x1bcb,%ebx
 42f:	83 ec 14             	sub    $0x14,%esp
 432:	8b 93 28 ff ff ff    	mov    -0xd8(%ebx),%edx
 438:	85 d2                	test   %edx,%edx
 43a:	74 15                	je     451 <frame_dummy+0x31>
 43c:	8b 83 fc ff ff ff    	mov    -0x4(%ebx),%eax
 442:	85 c0                	test   %eax,%eax
 444:	74 0b                	je     451 <frame_dummy+0x31>
 446:	8d 93 28 ff ff ff    	lea    -0xd8(%ebx),%edx
 44c:	89 14 24             	mov    %edx,(%esp)
 44f:	ff d0                	call   *%eax
 451:	83 c4 14             	add    $0x14,%esp
 454:	5b                   	pop    %ebx
 455:	5d                   	pop    %ebp
 456:	c3                   	ret    

00000457 <__i686.get_pc_thunk.bx>:
 457:	8b 1c 24             	mov    (%esp),%ebx
 45a:	c3                   	ret    
 45b:	90                   	nop

0000045c <libtest1>:
 45c:	55                   	push   %ebp
 45d:	89 e5                	mov    %esp,%ebp
 45f:	83 ec 18             	sub    $0x18,%esp
 462:	c7 04 24 d4 04 00 00 	movl   $0x4d4,(%esp)
 469:	e8 fc ff ff ff       	call   46a <libtest1+0xe>
 46e:	c7 04 24 00 05 00 00 	movl   $0x500,(%esp)
 475:	e8 fc ff ff ff       	call   476 <libtest1+0x1a>
 47a:	c9                   	leave  
 47b:	c3                   	ret    
 47c:	90                   	nop
 47d:	90                   	nop
 47e:	90                   	nop
 47f:	90                   	nop

00000480 <__do_global_ctors_aux>:
 480:	55                   	push   %ebp
 481:	89 e5                	mov    %esp,%ebp
 483:	56                   	push   %esi
 484:	53                   	push   %ebx
 485:	e8 cd ff ff ff       	call   457 <__i686.get_pc_thunk.bx>
 48a:	81 c3 6a 1b 00 00    	add    $0x1b6a,%ebx
 490:	8b 83 18 ff ff ff    	mov    -0xe8(%ebx),%eax
 496:	83 f8 ff             	cmp    $0xffffffff,%eax
 499:	74 19                	je     4b4 <__do_global_ctors_aux+0x34>
 49b:	8d b3 18 ff ff ff    	lea    -0xe8(%ebx),%esi
 4a1:	8d b4 26 00 00 00 00 	lea    0x0(%esi,%eiz,1),%esi
 4a8:	83 ee 04             	sub    $0x4,%esi
 4ab:	ff d0                	call   *%eax
 4ad:	8b 06                	mov    (%esi),%eax
 4af:	83 f8 ff             	cmp    $0xffffffff,%eax
 4b2:	75 f4                	jne    4a8 <__do_global_ctors_aux+0x28>
 4b4:	5b                   	pop    %ebx
 4b5:	5e                   	pop    %esi
 4b6:	5d                   	pop    %ebp
 4b7:	c3                   	ret    

Disassembly of section .fini:

000004b8 <_fini>:
 4b8:	53                   	push   %ebx
 4b9:	83 ec 08             	sub    $0x8,%esp
 4bc:	e8 00 00 00 00       	call   4c1 <_fini+0x9>
 4c1:	5b                   	pop    %ebx
 4c2:	81 c3 33 1b 00 00    	add    $0x1b33,%ebx
 4c8:	e8 d3 fe ff ff       	call   3a0 <__do_global_dtors_aux>
 4cd:	83 c4 08             	add    $0x8,%esp
 4d0:	5b                   	pop    %ebx
 4d1:	c3                   	ret    

Disassembly of section .rodata:

000004d4 <.rodata>:
 4d4:	6c                   	insb   (%dx),%es:(%edi)
 4d5:	69 62 74 65 73 74 31 	imul   $0x31747365,0x74(%edx),%esp
 4dc:	3a 20                	cmp    (%eax),%ah
 4de:	31 73 74             	xor    %esi,0x74(%ebx)
 4e1:	20 63 61             	and    %ah,0x61(%ebx)
 4e4:	6c                   	insb   (%dx),%es:(%edi)
 4e5:	6c                   	insb   (%dx),%es:(%edi)
 4e6:	20 74 6f 20          	and    %dh,0x20(%edi,%ebp,2)
 4ea:	74 68                	je     554 <_fini+0x9c>
 4ec:	65 20 6f 72          	and    %ch,%gs:0x72(%edi)
 4f0:	69 67 69 6e 61 6c 20 	imul   $0x206c616e,0x69(%edi),%esp
 4f7:	70 75                	jo     56e <_fini+0xb6>
 4f9:	74 73                	je     56e <_fini+0xb6>
 4fb:	28 29                	sub    %ch,(%ecx)
 4fd:	00 00                	add    %al,(%eax)
 4ff:	00 6c 69 62          	add    %ch,0x62(%ecx,%ebp,2)
 503:	74 65                	je     56a <_fini+0xb2>
 505:	73 74                	jae    57b <_fini+0xc3>
 507:	31 3a                	xor    %edi,(%edx)
 509:	20 32                	and    %dh,(%edx)
 50b:	6e                   	outsb  %ds:(%esi),(%dx)
 50c:	64 20 63 61          	and    %ah,%fs:0x61(%ebx)
 510:	6c                   	insb   (%dx),%es:(%edi)
 511:	6c                   	insb   (%dx),%es:(%edi)
 512:	20 74 6f 20          	and    %dh,0x20(%edi,%ebp,2)
 516:	74 68                	je     580 <_fini+0xc8>
 518:	65 20 6f 72          	and    %ch,%gs:0x72(%edi)
 51c:	69 67 69 6e 61 6c 20 	imul   $0x206c616e,0x69(%edi),%esp
 523:	70 75                	jo     59a <_fini+0xe2>
 525:	74 73                	je     59a <_fini+0xe2>
 527:	28 29                	sub    %ch,(%ecx)
	...

Disassembly of section .eh_frame_hdr:

0000052c <.eh_frame_hdr>:
 52c:	01 1b                	add    %ebx,(%ebx)
 52e:	03 3b                	add    (%ebx),%edi
 530:	18 00                	sbb    %al,(%eax)
 532:	00 00                	add    %al,(%eax)
 534:	02 00                	add    (%eax),%al
 536:	00 00                	add    %al,(%eax)
 538:	44                   	inc    %esp
 539:	fe                   	(bad)  
 53a:	ff                   	(bad)  
 53b:	ff 34 00             	pushl  (%eax,%eax,1)
 53e:	00 00                	add    %al,(%eax)
 540:	30 ff                	xor    %bh,%bh
 542:	ff                   	(bad)  
 543:	ff 58 00             	lcall  *0x0(%eax)
	...

Disassembly of section .eh_frame:

00000548 <__FRAME_END__-0x5c>:
 548:	14 00                	adc    $0x0,%al
 54a:	00 00                	add    %al,(%eax)
 54c:	00 00                	add    %al,(%eax)
 54e:	00 00                	add    %al,(%eax)
 550:	01 7a 52             	add    %edi,0x52(%edx)
 553:	00 01                	add    %al,(%ecx)
 555:	7c 08                	jl     55f <_fini+0xa7>
 557:	01 1b                	add    %ebx,(%ebx)
 559:	0c 04                	or     $0x4,%al
 55b:	04 88                	add    $0x88,%al
 55d:	01 00                	add    %eax,(%eax)
 55f:	00 20                	add    %ah,(%eax)
 561:	00 00                	add    %al,(%eax)
 563:	00 1c 00             	add    %bl,(%eax,%eax,1)
 566:	00 00                	add    %al,(%eax)
 568:	08 fe                	or     %bh,%dh
 56a:	ff                   	(bad)  
 56b:	ff 30                	pushl  (%eax)
 56d:	00 00                	add    %al,(%eax)
 56f:	00 00                	add    %al,(%eax)
 571:	0e                   	push   %cs
 572:	08 46 0e             	or     %al,0xe(%esi)
 575:	0c 4a                	or     $0x4a,%al
 577:	0f 0b                	ud2    
 579:	74 04                	je     57f <_fini+0xc7>
 57b:	78 00                	js     57d <_fini+0xc5>
 57d:	3f                   	aas    
 57e:	1a 3b                	sbb    (%ebx),%bh
 580:	2a 32                	sub    (%edx),%dh
 582:	24 22                	and    $0x22,%al
 584:	1c 00                	sbb    $0x0,%al
 586:	00 00                	add    %al,(%eax)
 588:	40                   	inc    %eax
 589:	00 00                	add    %al,(%eax)
 58b:	00 d0                	add    %dl,%al
 58d:	fe                   	(bad)  
 58e:	ff                   	(bad)  
 58f:	ff 20                	jmp    *(%eax)
 591:	00 00                	add    %al,(%eax)
 593:	00 00                	add    %al,(%eax)
 595:	41                   	inc    %ecx
 596:	0e                   	push   %cs
 597:	08 85 02 42 0d 05    	or     %al,0x50d4202(%ebp)
 59d:	5c                   	pop    %esp
 59e:	c5 0c 04             	lds    (%esp,%eax,1),%ecx
 5a1:	04 00                	add    $0x0,%al
	...

000005a4 <__FRAME_END__>:
 5a4:	00 00                	add    %al,(%eax)
	...

Disassembly of section .ctors:

00001f0c <__CTOR_LIST__>:
    1f0c:	ff                   	(bad)  
    1f0d:	ff                   	(bad)  
    1f0e:	ff                   	(bad)  
    1f0f:	ff 00                	incl   (%eax)

00001f10 <__CTOR_END__>:
    1f10:	00 00                	add    %al,(%eax)
	...

Disassembly of section .dtors:

00001f14 <__DTOR_LIST__>:
    1f14:	ff                   	(bad)  
    1f15:	ff                   	(bad)  
    1f16:	ff                   	(bad)  
    1f17:	ff 00                	incl   (%eax)

00001f18 <__DTOR_END__>:
    1f18:	00 00                	add    %al,(%eax)
	...

Disassembly of section .jcr:

00001f1c <__JCR_END__>:
    1f1c:	00 00                	add    %al,(%eax)
	...

Disassembly of section .dynamic:

00001f20 <.dynamic>:
    1f20:	01 00                	add    %eax,(%eax)
    1f22:	00 00                	add    %al,(%eax)
    1f24:	4d                   	dec    %ebp
    1f25:	00 00                	add    %al,(%eax)
    1f27:	00 0c 00             	add    %cl,(%eax,%eax,1)
    1f2a:	00 00                	add    %al,(%eax)
    1f2c:	40                   	inc    %eax
    1f2d:	03 00                	add    (%eax),%eax
    1f2f:	00 0d 00 00 00 b8    	add    %cl,0xb8000000
    1f35:	04 00                	add    $0x0,%al
    1f37:	00 f5                	add    %dh,%ch
    1f39:	fe                   	(bad)  
    1f3a:	ff 6f 38             	ljmp   *0x38(%edi)
    1f3d:	01 00                	add    %eax,(%eax)
    1f3f:	00 05 00 00 00 24    	add    %al,0x24000000
    1f45:	02 00                	add    (%eax),%al
    1f47:	00 06                	add    %al,(%esi)
    1f49:	00 00                	add    %al,(%eax)
    1f4b:	00 74 01 00          	add    %dh,0x0(%ecx,%eax,1)
    1f4f:	00 0a                	add    %cl,(%edx)
    1f51:	00 00                	add    %al,(%eax)
    1f53:	00 85 00 00 00 0b    	add    %al,0xb000000(%ebp)
    1f59:	00 00                	add    %al,(%eax)
    1f5b:	00 10                	add    %dl,(%eax)
    1f5d:	00 00                	add    %al,(%eax)
    1f5f:	00 03                	add    %al,(%ebx)
    1f61:	00 00                	add    %al,(%eax)
    1f63:	00 f4                	add    %dh,%ah
    1f65:	1f                   	pop    %ds
    1f66:	00 00                	add    %al,(%eax)
    1f68:	02 00                	add    (%eax),%al
    1f6a:	00 00                	add    %al,(%eax)
    1f6c:	10 00                	adc    %al,(%eax)
    1f6e:	00 00                	add    %al,(%eax)
    1f70:	14 00                	adc    $0x0,%al
    1f72:	00 00                	add    %al,(%eax)
    1f74:	11 00                	adc    %eax,(%eax)
    1f76:	00 00                	add    %al,(%eax)
    1f78:	17                   	pop    %ss
    1f79:	00 00                	add    %al,(%eax)
    1f7b:	00 30                	add    %dh,(%eax)
    1f7d:	03 00                	add    (%eax),%eax
    1f7f:	00 11                	add    %dl,(%ecx)
    1f81:	00 00                	add    %al,(%eax)
    1f83:	00 f0                	add    %dh,%al
    1f85:	02 00                	add    (%eax),%al
    1f87:	00 12                	add    %dl,(%edx)
    1f89:	00 00                	add    %al,(%eax)
    1f8b:	00 40 00             	add    %al,0x0(%eax)
    1f8e:	00 00                	add    %al,(%eax)
    1f90:	13 00                	adc    (%eax),%eax
    1f92:	00 00                	add    %al,(%eax)
    1f94:	08 00                	or     %al,(%eax)
    1f96:	00 00                	add    %al,(%eax)
    1f98:	16                   	push   %ss
    1f99:	00 00                	add    %al,(%eax)
    1f9b:	00 00                	add    %al,(%eax)
    1f9d:	00 00                	add    %al,(%eax)
    1f9f:	00 fe                	add    %bh,%dh
    1fa1:	ff                   	(bad)  
    1fa2:	ff 6f c0             	ljmp   *-0x40(%edi)
    1fa5:	02 00                	add    (%eax),%al
    1fa7:	00 ff                	add    %bh,%bh
    1fa9:	ff                   	(bad)  
    1faa:	ff 6f 01             	ljmp   *0x1(%edi)
    1fad:	00 00                	add    %al,(%eax)
    1faf:	00 f0                	add    %dh,%al
    1fb1:	ff                   	(bad)  
    1fb2:	ff 6f aa             	ljmp   *-0x56(%edi)
    1fb5:	02 00                	add    (%eax),%al
    1fb7:	00 fa                	add    %bh,%dl
    1fb9:	ff                   	(bad)  
    1fba:	ff 6f 03             	ljmp   *0x3(%edi)
	...

Disassembly of section .got:

00001fe8 <.got>:
	...

Disassembly of section .got.plt:

00001ff4 <.got.plt>:
    1ff4:	20 1f                	and    %bl,(%edi)
	...
    1ffe:	00 00                	add    %al,(%eax)
    2000:	86 03                	xchg   %al,(%ebx)
    2002:	00 00                	add    %al,(%eax)
    2004:	96                   	xchg   %eax,%esi
    2005:	03 00                	add    (%eax),%eax
	...

Disassembly of section .data:

00002008 <__dso_handle>:
    2008:	08 20                	or     %ah,(%eax)
	...

Disassembly of section .bss:

0000200c <completed.6159>:
    200c:	00 00                	add    %al,(%eax)
	...

00002010 <dtor_idx.6161>:
    2010:	00 00                	add    %al,(%eax)
	...

Disassembly of section .comment:

00000000 <.comment>:
   0:	47                   	inc    %edi
   1:	43                   	inc    %ebx
   2:	43                   	inc    %ebx
   3:	3a 20                	cmp    (%eax),%ah
   5:	28 55 62             	sub    %dl,0x62(%ebp)
   8:	75 6e                	jne    78 <_init-0x2c8>
   a:	74 75                	je     81 <_init-0x2bf>
   c:	2f                   	das    
   d:	4c                   	dec    %esp
   e:	69 6e 61 72 6f 20 34 	imul   $0x34206f72,0x61(%esi),%ebp
  15:	2e 36 2e 33 2d 31 75 	cs ss xor %cs:%ss:0x75627531,%ebp
  1c:	62 75 
  1e:	6e                   	outsb  %ds:(%esi),(%dx)
  1f:	74 75                	je     96 <_init-0x2aa>
  21:	35 29 20 34 2e       	xor    $0x2e342029,%eax
  26:	36 2e 33 00          	ss xor %cs:%ss:(%eax),%eax

Disassembly of section .debug_aranges:

00000000 <.debug_aranges>:
   0:	1c 00                	sbb    $0x0,%al
   2:	00 00                	add    %al,(%eax)
   4:	02 00                	add    (%eax),%al
   6:	00 00                	add    %al,(%eax)
   8:	00 00                	add    %al,(%eax)
   a:	04 00                	add    $0x0,%al
   c:	00 00                	add    %al,(%eax)
   e:	00 00                	add    %al,(%eax)
  10:	5c                   	pop    %esp
  11:	04 00                	add    $0x0,%al
  13:	00 20                	add    %ah,(%eax)
	...

Disassembly of section .debug_info:

00000000 <.debug_info>:
   0:	87 00                	xchg   %eax,(%eax)
   2:	00 00                	add    %al,(%eax)
   4:	02 00                	add    (%eax),%al
   6:	00 00                	add    %al,(%eax)
   8:	00 00                	add    %al,(%eax)
   a:	04 01                	add    $0x1,%al
   c:	3f                   	aas    
   d:	00 00                	add    %al,(%eax)
   f:	00 01                	add    %al,(%ecx)
  11:	00 00                	add    %al,(%eax)
  13:	00 00                	add    %al,(%eax)
  15:	62 00                	bound  %eax,(%eax)
  17:	00 00                	add    %al,(%eax)
  19:	5c                   	pop    %esp
  1a:	04 00                	add    $0x0,%al
  1c:	00 7c 04 00          	add    %bh,0x0(%esp,%eax,1)
	...
  28:	00 02                	add    %al,(%edx)
  2a:	04 07                	add    $0x7,%al
  2c:	32 00                	xor    (%eax),%al
  2e:	00 00                	add    %al,(%eax)
  30:	02 01                	add    (%ecx),%al
  32:	08 4b 00             	or     %cl,0x0(%ebx)
  35:	00 00                	add    %al,(%eax)
  37:	02 02                	add    (%edx),%al
  39:	07                   	pop    %es
  3a:	0b 00                	or     (%eax),%eax
  3c:	00 00                	add    %al,(%eax)
  3e:	02 04 07             	add    (%edi,%eax,1),%al
  41:	2d 00 00 00 02       	sub    $0x2000000,%eax
  46:	01 06                	add    %eax,(%esi)
  48:	4d                   	dec    %ebp
  49:	00 00                	add    %al,(%eax)
  4b:	00 02                	add    %al,(%edx)
  4d:	02 05 1e 00 00 00    	add    0x1e,%al
  53:	03 04 05 69 6e 74 00 	add    0x746e69(,%eax,1),%eax
  5a:	02 08                	add    (%eax),%cl
  5c:	05 80 00 00 00       	add    $0x80,%eax
  61:	02 08                	add    (%eax),%cl
  63:	07                   	pop    %es
  64:	28 00                	sub    %al,(%eax)
  66:	00 00                	add    %al,(%eax)
  68:	02 04 05 85 00 00 00 	add    0x85(,%eax,1),%al
  6f:	02 01                	add    (%ecx),%al
  71:	06                   	push   %es
  72:	54                   	push   %esp
  73:	00 00                	add    %al,(%eax)
  75:	00 04 01             	add    %al,(%ecx,%eax,1)
  78:	59                   	pop    %ecx
  79:	00 00                	add    %al,(%eax)
  7b:	00 01                	add    %al,(%ecx)
  7d:	04 5c                	add    $0x5c,%al
  7f:	04 00                	add    $0x0,%al
  81:	00 7c 04 00          	add    %bh,0x0(%esp,%eax,1)
  85:	00 00                	add    %al,(%eax)
  87:	00 00                	add    %al,(%eax)
	...

Disassembly of section .debug_abbrev:

00000000 <.debug_abbrev>:
   0:	01 11                	add    %edx,(%ecx)
   2:	01 25 0e 13 0b 03    	add    %esp,0x30b130e
   8:	0e                   	push   %cs
   9:	1b 0e                	sbb    (%esi),%ecx
   b:	11 01                	adc    %eax,(%ecx)
   d:	12 01                	adc    (%ecx),%al
   f:	10 06                	adc    %al,(%esi)
  11:	43                   	inc    %ebx
  12:	06                   	push   %es
  13:	00 00                	add    %al,(%eax)
  15:	02 24 00             	add    (%eax,%eax,1),%ah
  18:	0b 0b                	or     (%ebx),%ecx
  1a:	3e 0b 03             	or     %ds:(%ebx),%eax
  1d:	0e                   	push   %cs
  1e:	00 00                	add    %al,(%eax)
  20:	03 24 00             	add    (%eax,%eax,1),%esp
  23:	0b 0b                	or     (%ebx),%ecx
  25:	3e 0b 03             	or     %ds:(%ebx),%eax
  28:	08 00                	or     %al,(%eax)
  2a:	00 04 2e             	add    %al,(%esi,%ebp,1)
  2d:	00 3f                	add    %bh,(%edi)
  2f:	0c 03                	or     $0x3,%al
  31:	0e                   	push   %cs
  32:	3a 0b                	cmp    (%ebx),%cl
  34:	3b 0b                	cmp    (%ebx),%ecx
  36:	11 01                	adc    %eax,(%ecx)
  38:	12 01                	adc    (%ecx),%al
  3a:	40                   	inc    %eax
  3b:	06                   	push   %es
  3c:	00 00                	add    %al,(%eax)
	...

Disassembly of section .debug_line:

00000000 <.debug_line>:
   0:	9e                   	sahf   
   1:	01 00                	add    %eax,(%eax)
   3:	00 02                	add    %al,(%edx)
   5:	00 88 01 00 00 01    	add    %cl,0x1000001(%eax)
   b:	01 fb                	add    %edi,%ebx
   d:	0e                   	push   %cs
   e:	0d 00 01 01 01       	or     $0x1010100,%eax
  13:	01 00                	add    %eax,(%eax)
  15:	00 00                	add    %al,(%eax)
  17:	01 00                	add    %eax,(%eax)
  19:	00 01                	add    %al,(%ecx)
  1b:	2f                   	das    
  1c:	75 73                	jne    91 <_init-0x2af>
  1e:	72 2f                	jb     4f <_init-0x2f1>
  20:	69 6e 63 6c 75 64 65 	imul   $0x6564756c,0x63(%esi),%ebp
  27:	00 2f                	add    %ch,(%edi)
  29:	75 73                	jne    9e <_init-0x2a2>
  2b:	72 2f                	jb     5c <_init-0x2e4>
  2d:	69 6e 63 6c 75 64 65 	imul   $0x6564756c,0x63(%esi),%ebp
  34:	2f                   	das    
  35:	69 33 38 36 2d 6c    	imul   $0x6c2d3638,(%ebx),%esi
  3b:	69 6e 75 78 2d 67 6e 	imul   $0x6e672d78,0x75(%esi),%ebp
  42:	75 2f                	jne    73 <_init-0x2cd>
  44:	62 69 74             	bound  %ebp,0x74(%ecx)
  47:	73 00                	jae    49 <_init-0x2f7>
  49:	2f                   	das    
  4a:	75 73                	jne    bf <_init-0x281>
  4c:	72 2f                	jb     7d <_init-0x2c3>
  4e:	69 6e 63 6c 75 64 65 	imul   $0x6564756c,0x63(%esi),%ebp
  55:	2f                   	das    
  56:	69 33 38 36 2d 6c    	imul   $0x6c2d3638,(%ebx),%esi
  5c:	69 6e 75 78 2d 67 6e 	imul   $0x6e672d78,0x75(%esi),%ebp
  63:	75 2f                	jne    94 <_init-0x2ac>
  65:	73 79                	jae    e0 <_init-0x260>
  67:	73 00                	jae    69 <_init-0x2d7>
  69:	2f                   	das    
  6a:	75 73                	jne    df <_init-0x261>
  6c:	72 2f                	jb     9d <_init-0x2a3>
  6e:	69 6e 63 6c 75 64 65 	imul   $0x6564756c,0x63(%esi),%ebp
  75:	2f                   	das    
  76:	69 33 38 36 2d 6c    	imul   $0x6c2d3638,(%ebx),%esi
  7c:	69 6e 75 78 2d 67 6e 	imul   $0x6e672d78,0x75(%esi),%ebp
  83:	75 2f                	jne    b4 <_init-0x28c>
  85:	67 6e                	outsb  %ds:(%si),(%dx)
  87:	75 00                	jne    89 <_init-0x2b7>
  89:	2f                   	das    
  8a:	75 73                	jne    ff <_init-0x241>
  8c:	72 2f                	jb     bd <_init-0x283>
  8e:	6c                   	insb   (%dx),%es:(%edi)
  8f:	69 62 2f 67 63 63 2f 	imul   $0x2f636367,0x2f(%edx),%esp
  96:	78 38                	js     d0 <_init-0x270>
  98:	36                   	ss
  99:	5f                   	pop    %edi
  9a:	36                   	ss
  9b:	34 2d                	xor    $0x2d,%al
  9d:	6c                   	insb   (%dx),%es:(%edi)
  9e:	69 6e 75 78 2d 67 6e 	imul   $0x6e672d78,0x75(%esi),%ebp
  a5:	75 2f                	jne    d6 <_init-0x26a>
  a7:	34 2e                	xor    $0x2e,%al
  a9:	36                   	ss
  aa:	2f                   	das    
  ab:	69 6e 63 6c 75 64 65 	imul   $0x6564756c,0x63(%esi),%ebp
  b2:	00 00                	add    %al,(%eax)
  b4:	6c                   	insb   (%dx),%es:(%edi)
  b5:	69 62 74 65 73 74 31 	imul   $0x31747365,0x74(%edx),%esp
  bc:	2e 63 00             	arpl   %ax,%cs:(%eax)
  bf:	00 00                	add    %al,(%eax)
  c1:	00 73 74             	add    %dh,0x74(%ebx)
  c4:	64 69 6f 2e 68 00 01 	imul   $0x10068,%fs:0x2e(%edi),%ebp
  cb:	00 
  cc:	00 66 65             	add    %ah,0x65(%esi)
  cf:	61                   	popa   
  d0:	74 75                	je     147 <_init-0x1f9>
  d2:	72 65                	jb     139 <_init-0x207>
  d4:	73 2e                	jae    104 <_init-0x23c>
  d6:	68 00 01 00 00       	push   $0x100
  db:	70 72                	jo     14f <_init-0x1f1>
  dd:	65                   	gs
  de:	64                   	fs
  df:	65                   	gs
  e0:	66                   	data16
  e1:	73 2e                	jae    111 <_init-0x22f>
  e3:	68 00 02 00 00       	push   $0x200
  e8:	63 64 65 66          	arpl   %sp,0x66(%ebp,%eiz,2)
  ec:	73 2e                	jae    11c <_init-0x224>
  ee:	68 00 03 00 00       	push   $0x300
  f3:	77 6f                	ja     164 <_init-0x1dc>
  f5:	72 64                	jb     15b <_init-0x1e5>
  f7:	73 69                	jae    162 <_init-0x1de>
  f9:	7a 65                	jp     160 <_init-0x1e0>
  fb:	2e                   	cs
  fc:	68 00 02 00 00       	push   $0x200
 101:	73 74                	jae    177 <_init-0x1c9>
 103:	75 62                	jne    167 <_init-0x1d9>
 105:	73 2e                	jae    135 <_init-0x20b>
 107:	68 00 04 00 00       	push   $0x400
 10c:	73 74                	jae    182 <_init-0x1be>
 10e:	75 62                	jne    172 <_init-0x1ce>
 110:	73 2d                	jae    13f <_init-0x201>
 112:	33 32                	xor    (%edx),%esi
 114:	2e                   	cs
 115:	68 00 04 00 00       	push   $0x400
 11a:	73 74                	jae    190 <_init-0x1b0>
 11c:	64                   	fs
 11d:	64                   	fs
 11e:	65                   	gs
 11f:	66                   	data16
 120:	2e                   	cs
 121:	68 00 05 00 00       	push   $0x500
 126:	74 79                	je     1a1 <_init-0x19f>
 128:	70 65                	jo     18f <_init-0x1b1>
 12a:	73 2e                	jae    15a <_init-0x1e6>
 12c:	68 00 02 00 00       	push   $0x200
 131:	74 79                	je     1ac <_init-0x194>
 133:	70 65                	jo     19a <_init-0x1a6>
 135:	73 69                	jae    1a0 <_init-0x1a0>
 137:	7a 65                	jp     19e <_init-0x1a2>
 139:	73 2e                	jae    169 <_init-0x1d7>
 13b:	68 00 02 00 00       	push   $0x200
 140:	6c                   	insb   (%dx),%es:(%edi)
 141:	69 62 69 6f 2e 68 00 	imul   $0x682e6f,0x69(%edx),%esp
 148:	01 00                	add    %eax,(%eax)
 14a:	00 5f 47             	add    %bl,0x47(%edi)
 14d:	5f                   	pop    %edi
 14e:	63 6f 6e             	arpl   %bp,0x6e(%edi)
 151:	66 69 67 2e 68 00    	imul   $0x68,0x2e(%edi),%sp
 157:	01 00                	add    %eax,(%eax)
 159:	00 77 63             	add    %dh,0x63(%edi)
 15c:	68 61 72 2e 68       	push   $0x682e7261
 161:	00 01                	add    %al,(%ecx)
 163:	00 00                	add    %al,(%eax)
 165:	73 74                	jae    1db <_init-0x165>
 167:	64                   	fs
 168:	61                   	popa   
 169:	72 67                	jb     1d2 <_init-0x16e>
 16b:	2e                   	cs
 16c:	68 00 05 00 00       	push   $0x500
 171:	73 74                	jae    1e7 <_init-0x159>
 173:	64 69 6f 5f 6c 69 6d 	imul   $0x2e6d696c,%fs:0x5f(%edi),%ebp
 17a:	2e 
 17b:	68 00 02 00 00       	push   $0x200
 180:	73 79                	jae    1fb <_init-0x145>
 182:	73 5f                	jae    1e3 <_init-0x15d>
 184:	65                   	gs
 185:	72 72                	jb     1f9 <_init-0x147>
 187:	6c                   	insb   (%dx),%es:(%edi)
 188:	69 73 74 2e 68 00 02 	imul   $0x200682e,0x74(%ebx),%esi
 18f:	00 00                	add    %al,(%eax)
 191:	00 00                	add    %al,(%eax)
 193:	05 02 5c 04 00       	add    $0x45c02,%eax
 198:	00 15 67 bb bb 02    	add    %dl,0x2bbbb67
 19e:	02 00                	add    (%eax),%al
 1a0:	01 01                	add    %eax,(%ecx)

Disassembly of section .debug_str:

00000000 <.debug_str>:
   0:	6c                   	insb   (%dx),%es:(%edi)
   1:	69 62 74 65 73 74 31 	imul   $0x31747365,0x74(%edx),%esp
   8:	2e 63 00             	arpl   %ax,%cs:(%eax)
   b:	73 68                	jae    75 <_init-0x2cb>
   d:	6f                   	outsl  %ds:(%esi),(%dx)
   e:	72 74                	jb     84 <_init-0x2bc>
  10:	20 75 6e             	and    %dh,0x6e(%ebp)
  13:	73 69                	jae    7e <_init-0x2c2>
  15:	67 6e                	outsb  %ds:(%si),(%dx)
  17:	65 64 20 69 6e       	gs and %ch,%fs:%gs:0x6e(%ecx)
  1c:	74 00                	je     1e <_init-0x322>
  1e:	73 68                	jae    88 <_init-0x2b8>
  20:	6f                   	outsl  %ds:(%esi),(%dx)
  21:	72 74                	jb     97 <_init-0x2a9>
  23:	20 69 6e             	and    %ch,0x6e(%ecx)
  26:	74 00                	je     28 <_init-0x318>
  28:	6c                   	insb   (%dx),%es:(%edi)
  29:	6f                   	outsl  %ds:(%esi),(%dx)
  2a:	6e                   	outsb  %ds:(%esi),(%dx)
  2b:	67 20 6c 6f          	and    %ch,0x6f(%si)
  2f:	6e                   	outsb  %ds:(%esi),(%dx)
  30:	67 20 75 6e          	and    %dh,0x6e(%di)
  34:	73 69                	jae    9f <_init-0x2a1>
  36:	67 6e                	outsb  %ds:(%si),(%dx)
  38:	65 64 20 69 6e       	gs and %ch,%fs:%gs:0x6e(%ecx)
  3d:	74 00                	je     3f <_init-0x301>
  3f:	47                   	inc    %edi
  40:	4e                   	dec    %esi
  41:	55                   	push   %ebp
  42:	20 43 20             	and    %al,0x20(%ebx)
  45:	34 2e                	xor    $0x2e,%al
  47:	36 2e 33 00          	ss xor %cs:%ss:(%eax),%eax
  4b:	75 6e                	jne    bb <_init-0x285>
  4d:	73 69                	jae    b8 <_init-0x288>
  4f:	67 6e                	outsb  %ds:(%si),(%dx)
  51:	65 64 20 63 68       	gs and %ah,%fs:%gs:0x68(%ebx)
  56:	61                   	popa   
  57:	72 00                	jb     59 <_init-0x2e7>
  59:	6c                   	insb   (%dx),%es:(%edi)
  5a:	69 62 74 65 73 74 31 	imul   $0x31747365,0x74(%edx),%esp
  61:	00 2f                	add    %ch,(%edi)
  63:	68 6f 6d 65 2f       	push   $0x2f656d6f
  68:	6b 6e 6f 78          	imul   $0x78,0x6f(%esi),%ebp
  6c:	2f                   	das    
  6d:	74 65                	je     d4 <_init-0x26c>
  6f:	6d                   	insl   (%dx),%es:(%edi)
  70:	70 2f                	jo     a1 <_init-0x29f>
  72:	44                   	inc    %esp
  73:	65                   	gs
  74:	6d                   	insl   (%dx),%es:(%edi)
  75:	6f                   	outsl  %ds:(%esi),(%dx)
  76:	43                   	inc    %ebx
  77:	6f                   	outsl  %ds:(%esi),(%dx)
  78:	64                   	fs
  79:	65                   	gs
  7a:	2f                   	das    
  7b:	63 45 6c             	arpl   %ax,0x6c(%ebp)
  7e:	66                   	data16
  7f:	00 6c 6f 6e          	add    %ch,0x6e(%edi,%ebp,2)
  83:	67 20 6c 6f          	and    %ch,0x6f(%si)
  87:	6e                   	outsb  %ds:(%esi),(%dx)
  88:	67 20 69 6e          	and    %ch,0x6e(%bx,%di)
  8c:	74 00                	je     8e <_init-0x2b2>

Disassembly of section .debug_loc:

00000000 <.debug_loc>:
   0:	00 00                	add    %al,(%eax)
   2:	00 00                	add    %al,(%eax)
   4:	01 00                	add    %eax,(%eax)
   6:	00 00                	add    %al,(%eax)
   8:	02 00                	add    (%eax),%al
   a:	74 04                	je     10 <_init-0x330>
   c:	01 00                	add    %eax,(%eax)
   e:	00 00                	add    %al,(%eax)
  10:	03 00                	add    (%eax),%eax
  12:	00 00                	add    %al,(%eax)
  14:	02 00                	add    (%eax),%al
  16:	74 08                	je     20 <_init-0x320>
  18:	03 00                	add    (%eax),%eax
  1a:	00 00                	add    %al,(%eax)
  1c:	1f                   	pop    %ds
  1d:	00 00                	add    %al,(%eax)
  1f:	00 02                	add    %al,(%edx)
  21:	00 75 08             	add    %dh,0x8(%ebp)
  24:	1f                   	pop    %ds
  25:	00 00                	add    %al,(%eax)
  27:	00 20                	add    %ah,(%eax)
  29:	00 00                	add    %al,(%eax)
  2b:	00 02                	add    %al,(%edx)
  2d:	00 74 04 00          	add    %dh,0x0(%esp,%eax,1)
  31:	00 00                	add    %al,(%eax)
  33:	00 00                	add    %al,(%eax)
  35:	00 00                	add    %al,(%eax)
	...

Disassembly of section .debug_macinfo:

00000000 <.debug_macinfo>:
       0:	01 00                	add    %eax,(%eax)
       2:	5f                   	pop    %edi
       3:	5f                   	pop    %edi
       4:	53                   	push   %ebx
       5:	54                   	push   %esp
       6:	44                   	inc    %esp
       7:	43                   	inc    %ebx
       8:	5f                   	pop    %edi
       9:	5f                   	pop    %edi
       a:	20 31                	and    %dh,(%ecx)
       c:	00 01                	add    %al,(%ecx)
       e:	00 5f 5f             	add    %bl,0x5f(%edi)
      11:	53                   	push   %ebx
      12:	54                   	push   %esp
      13:	44                   	inc    %esp
      14:	43                   	inc    %ebx
      15:	5f                   	pop    %edi
      16:	48                   	dec    %eax
      17:	4f                   	dec    %edi
      18:	53                   	push   %ebx
      19:	54                   	push   %esp
      1a:	45                   	inc    %ebp
      1b:	44                   	inc    %esp
      1c:	5f                   	pop    %edi
      1d:	5f                   	pop    %edi
      1e:	20 31                	and    %dh,(%ecx)
      20:	00 01                	add    %al,(%ecx)
      22:	00 5f 5f             	add    %bl,0x5f(%edi)
      25:	47                   	inc    %edi
      26:	4e                   	dec    %esi
      27:	55                   	push   %ebp
      28:	43                   	inc    %ebx
      29:	5f                   	pop    %edi
      2a:	5f                   	pop    %edi
      2b:	20 34 00             	and    %dh,(%eax,%eax,1)
      2e:	01 00                	add    %eax,(%eax)
      30:	5f                   	pop    %edi
      31:	5f                   	pop    %edi
      32:	47                   	inc    %edi
      33:	4e                   	dec    %esi
      34:	55                   	push   %ebp
      35:	43                   	inc    %ebx
      36:	5f                   	pop    %edi
      37:	4d                   	dec    %ebp
      38:	49                   	dec    %ecx
      39:	4e                   	dec    %esi
      3a:	4f                   	dec    %edi
      3b:	52                   	push   %edx
      3c:	5f                   	pop    %edi
      3d:	5f                   	pop    %edi
      3e:	20 36                	and    %dh,(%esi)
      40:	00 01                	add    %al,(%ecx)
      42:	00 5f 5f             	add    %bl,0x5f(%edi)
      45:	47                   	inc    %edi
      46:	4e                   	dec    %esi
      47:	55                   	push   %ebp
      48:	43                   	inc    %ebx
      49:	5f                   	pop    %edi
      4a:	50                   	push   %eax
      4b:	41                   	inc    %ecx
      4c:	54                   	push   %esp
      4d:	43                   	inc    %ebx
      4e:	48                   	dec    %eax
      4f:	4c                   	dec    %esp
      50:	45                   	inc    %ebp
      51:	56                   	push   %esi
      52:	45                   	inc    %ebp
      53:	4c                   	dec    %esp
      54:	5f                   	pop    %edi
      55:	5f                   	pop    %edi
      56:	20 33                	and    %dh,(%ebx)
      58:	00 01                	add    %al,(%ecx)
      5a:	00 5f 5f             	add    %bl,0x5f(%edi)
      5d:	56                   	push   %esi
      5e:	45                   	inc    %ebp
      5f:	52                   	push   %edx
      60:	53                   	push   %ebx
      61:	49                   	dec    %ecx
      62:	4f                   	dec    %edi
      63:	4e                   	dec    %esi
      64:	5f                   	pop    %edi
      65:	5f                   	pop    %edi
      66:	20 22                	and    %ah,(%edx)
      68:	34 2e                	xor    $0x2e,%al
      6a:	36 2e 33 22          	ss xor %cs:%ss:(%edx),%esp
      6e:	00 01                	add    %al,(%ecx)
      70:	00 5f 5f             	add    %bl,0x5f(%edi)
      73:	46                   	inc    %esi
      74:	49                   	dec    %ecx
      75:	4e                   	dec    %esi
      76:	49                   	dec    %ecx
      77:	54                   	push   %esp
      78:	45                   	inc    %ebp
      79:	5f                   	pop    %edi
      7a:	4d                   	dec    %ebp
      7b:	41                   	inc    %ecx
      7c:	54                   	push   %esp
      7d:	48                   	dec    %eax
      7e:	5f                   	pop    %edi
      7f:	4f                   	dec    %edi
      80:	4e                   	dec    %esi
      81:	4c                   	dec    %esp
      82:	59                   	pop    %ecx
      83:	5f                   	pop    %edi
      84:	5f                   	pop    %edi
      85:	20 30                	and    %dh,(%eax)
      87:	00 01                	add    %al,(%ecx)
      89:	00 5f 5f             	add    %bl,0x5f(%edi)
      8c:	53                   	push   %ebx
      8d:	49                   	dec    %ecx
      8e:	5a                   	pop    %edx
      8f:	45                   	inc    %ebp
      90:	4f                   	dec    %edi
      91:	46                   	inc    %esi
      92:	5f                   	pop    %edi
      93:	49                   	dec    %ecx
      94:	4e                   	dec    %esi
      95:	54                   	push   %esp
      96:	5f                   	pop    %edi
      97:	5f                   	pop    %edi
      98:	20 34 00             	and    %dh,(%eax,%eax,1)
      9b:	01 00                	add    %eax,(%eax)
      9d:	5f                   	pop    %edi
      9e:	5f                   	pop    %edi
      9f:	53                   	push   %ebx
      a0:	49                   	dec    %ecx
      a1:	5a                   	pop    %edx
      a2:	45                   	inc    %ebp
      a3:	4f                   	dec    %edi
      a4:	46                   	inc    %esi
      a5:	5f                   	pop    %edi
      a6:	4c                   	dec    %esp
      a7:	4f                   	dec    %edi
      a8:	4e                   	dec    %esi
      a9:	47                   	inc    %edi
      aa:	5f                   	pop    %edi
      ab:	5f                   	pop    %edi
      ac:	20 34 00             	and    %dh,(%eax,%eax,1)
      af:	01 00                	add    %eax,(%eax)
      b1:	5f                   	pop    %edi
      b2:	5f                   	pop    %edi
      b3:	53                   	push   %ebx
      b4:	49                   	dec    %ecx
      b5:	5a                   	pop    %edx
      b6:	45                   	inc    %ebp
      b7:	4f                   	dec    %edi
      b8:	46                   	inc    %esi
      b9:	5f                   	pop    %edi
      ba:	4c                   	dec    %esp
      bb:	4f                   	dec    %edi
      bc:	4e                   	dec    %esi
      bd:	47                   	inc    %edi
      be:	5f                   	pop    %edi
      bf:	4c                   	dec    %esp
      c0:	4f                   	dec    %edi
      c1:	4e                   	dec    %esi
      c2:	47                   	inc    %edi
      c3:	5f                   	pop    %edi
      c4:	5f                   	pop    %edi
      c5:	20 38                	and    %bh,(%eax)
      c7:	00 01                	add    %al,(%ecx)
      c9:	00 5f 5f             	add    %bl,0x5f(%edi)
      cc:	53                   	push   %ebx
      cd:	49                   	dec    %ecx
      ce:	5a                   	pop    %edx
      cf:	45                   	inc    %ebp
      d0:	4f                   	dec    %edi
      d1:	46                   	inc    %esi
      d2:	5f                   	pop    %edi
      d3:	53                   	push   %ebx
      d4:	48                   	dec    %eax
      d5:	4f                   	dec    %edi
      d6:	52                   	push   %edx
      d7:	54                   	push   %esp
      d8:	5f                   	pop    %edi
      d9:	5f                   	pop    %edi
      da:	20 32                	and    %dh,(%edx)
      dc:	00 01                	add    %al,(%ecx)
      de:	00 5f 5f             	add    %bl,0x5f(%edi)
      e1:	53                   	push   %ebx
      e2:	49                   	dec    %ecx
      e3:	5a                   	pop    %edx
      e4:	45                   	inc    %ebp
      e5:	4f                   	dec    %edi
      e6:	46                   	inc    %esi
      e7:	5f                   	pop    %edi
      e8:	46                   	inc    %esi
      e9:	4c                   	dec    %esp
      ea:	4f                   	dec    %edi
      eb:	41                   	inc    %ecx
      ec:	54                   	push   %esp
      ed:	5f                   	pop    %edi
      ee:	5f                   	pop    %edi
      ef:	20 34 00             	and    %dh,(%eax,%eax,1)
      f2:	01 00                	add    %eax,(%eax)
      f4:	5f                   	pop    %edi
      f5:	5f                   	pop    %edi
      f6:	53                   	push   %ebx
      f7:	49                   	dec    %ecx
      f8:	5a                   	pop    %edx
      f9:	45                   	inc    %ebp
      fa:	4f                   	dec    %edi
      fb:	46                   	inc    %esi
      fc:	5f                   	pop    %edi
      fd:	44                   	inc    %esp
      fe:	4f                   	dec    %edi
      ff:	55                   	push   %ebp
     100:	42                   	inc    %edx
     101:	4c                   	dec    %esp
     102:	45                   	inc    %ebp
     103:	5f                   	pop    %edi
     104:	5f                   	pop    %edi
     105:	20 38                	and    %bh,(%eax)
     107:	00 01                	add    %al,(%ecx)
     109:	00 5f 5f             	add    %bl,0x5f(%edi)
     10c:	53                   	push   %ebx
     10d:	49                   	dec    %ecx
     10e:	5a                   	pop    %edx
     10f:	45                   	inc    %ebp
     110:	4f                   	dec    %edi
     111:	46                   	inc    %esi
     112:	5f                   	pop    %edi
     113:	4c                   	dec    %esp
     114:	4f                   	dec    %edi
     115:	4e                   	dec    %esi
     116:	47                   	inc    %edi
     117:	5f                   	pop    %edi
     118:	44                   	inc    %esp
     119:	4f                   	dec    %edi
     11a:	55                   	push   %ebp
     11b:	42                   	inc    %edx
     11c:	4c                   	dec    %esp
     11d:	45                   	inc    %ebp
     11e:	5f                   	pop    %edi
     11f:	5f                   	pop    %edi
     120:	20 31                	and    %dh,(%ecx)
     122:	32 00                	xor    (%eax),%al
     124:	01 00                	add    %eax,(%eax)
     126:	5f                   	pop    %edi
     127:	5f                   	pop    %edi
     128:	53                   	push   %ebx
     129:	49                   	dec    %ecx
     12a:	5a                   	pop    %edx
     12b:	45                   	inc    %ebp
     12c:	4f                   	dec    %edi
     12d:	46                   	inc    %esi
     12e:	5f                   	pop    %edi
     12f:	53                   	push   %ebx
     130:	49                   	dec    %ecx
     131:	5a                   	pop    %edx
     132:	45                   	inc    %ebp
     133:	5f                   	pop    %edi
     134:	54                   	push   %esp
     135:	5f                   	pop    %edi
     136:	5f                   	pop    %edi
     137:	20 34 00             	and    %dh,(%eax,%eax,1)
     13a:	01 00                	add    %eax,(%eax)
     13c:	5f                   	pop    %edi
     13d:	5f                   	pop    %edi
     13e:	43                   	inc    %ebx
     13f:	48                   	dec    %eax
     140:	41                   	inc    %ecx
     141:	52                   	push   %edx
     142:	5f                   	pop    %edi
     143:	42                   	inc    %edx
     144:	49                   	dec    %ecx
     145:	54                   	push   %esp
     146:	5f                   	pop    %edi
     147:	5f                   	pop    %edi
     148:	20 38                	and    %bh,(%eax)
     14a:	00 01                	add    %al,(%ecx)
     14c:	00 5f 5f             	add    %bl,0x5f(%edi)
     14f:	42                   	inc    %edx
     150:	49                   	dec    %ecx
     151:	47                   	inc    %edi
     152:	47                   	inc    %edi
     153:	45                   	inc    %ebp
     154:	53                   	push   %ebx
     155:	54                   	push   %esp
     156:	5f                   	pop    %edi
     157:	41                   	inc    %ecx
     158:	4c                   	dec    %esp
     159:	49                   	dec    %ecx
     15a:	47                   	inc    %edi
     15b:	4e                   	dec    %esi
     15c:	4d                   	dec    %ebp
     15d:	45                   	inc    %ebp
     15e:	4e                   	dec    %esi
     15f:	54                   	push   %esp
     160:	5f                   	pop    %edi
     161:	5f                   	pop    %edi
     162:	20 31                	and    %dh,(%ecx)
     164:	36 00 01             	add    %al,%ss:(%ecx)
     167:	00 5f 5f             	add    %bl,0x5f(%edi)
     16a:	4f                   	dec    %edi
     16b:	52                   	push   %edx
     16c:	44                   	inc    %esp
     16d:	45                   	inc    %ebp
     16e:	52                   	push   %edx
     16f:	5f                   	pop    %edi
     170:	4c                   	dec    %esp
     171:	49                   	dec    %ecx
     172:	54                   	push   %esp
     173:	54                   	push   %esp
     174:	4c                   	dec    %esp
     175:	45                   	inc    %ebp
     176:	5f                   	pop    %edi
     177:	45                   	inc    %ebp
     178:	4e                   	dec    %esi
     179:	44                   	inc    %esp
     17a:	49                   	dec    %ecx
     17b:	41                   	inc    %ecx
     17c:	4e                   	dec    %esi
     17d:	5f                   	pop    %edi
     17e:	5f                   	pop    %edi
     17f:	20 31                	and    %dh,(%ecx)
     181:	32 33                	xor    (%ebx),%dh
     183:	34 00                	xor    $0x0,%al
     185:	01 00                	add    %eax,(%eax)
     187:	5f                   	pop    %edi
     188:	5f                   	pop    %edi
     189:	4f                   	dec    %edi
     18a:	52                   	push   %edx
     18b:	44                   	inc    %esp
     18c:	45                   	inc    %ebp
     18d:	52                   	push   %edx
     18e:	5f                   	pop    %edi
     18f:	42                   	inc    %edx
     190:	49                   	dec    %ecx
     191:	47                   	inc    %edi
     192:	5f                   	pop    %edi
     193:	45                   	inc    %ebp
     194:	4e                   	dec    %esi
     195:	44                   	inc    %esp
     196:	49                   	dec    %ecx
     197:	41                   	inc    %ecx
     198:	4e                   	dec    %esi
     199:	5f                   	pop    %edi
     19a:	5f                   	pop    %edi
     19b:	20 34 33             	and    %dh,(%ebx,%esi,1)
     19e:	32 31                	xor    (%ecx),%dh
     1a0:	00 01                	add    %al,(%ecx)
     1a2:	00 5f 5f             	add    %bl,0x5f(%edi)
     1a5:	4f                   	dec    %edi
     1a6:	52                   	push   %edx
     1a7:	44                   	inc    %esp
     1a8:	45                   	inc    %ebp
     1a9:	52                   	push   %edx
     1aa:	5f                   	pop    %edi
     1ab:	50                   	push   %eax
     1ac:	44                   	inc    %esp
     1ad:	50                   	push   %eax
     1ae:	5f                   	pop    %edi
     1af:	45                   	inc    %ebp
     1b0:	4e                   	dec    %esi
     1b1:	44                   	inc    %esp
     1b2:	49                   	dec    %ecx
     1b3:	41                   	inc    %ecx
     1b4:	4e                   	dec    %esi
     1b5:	5f                   	pop    %edi
     1b6:	5f                   	pop    %edi
     1b7:	20 33                	and    %dh,(%ebx)
     1b9:	34 31                	xor    $0x31,%al
     1bb:	32 00                	xor    (%eax),%al
     1bd:	01 00                	add    %eax,(%eax)
     1bf:	5f                   	pop    %edi
     1c0:	5f                   	pop    %edi
     1c1:	42                   	inc    %edx
     1c2:	59                   	pop    %ecx
     1c3:	54                   	push   %esp
     1c4:	45                   	inc    %ebp
     1c5:	5f                   	pop    %edi
     1c6:	4f                   	dec    %edi
     1c7:	52                   	push   %edx
     1c8:	44                   	inc    %esp
     1c9:	45                   	inc    %ebp
     1ca:	52                   	push   %edx
     1cb:	5f                   	pop    %edi
     1cc:	5f                   	pop    %edi
     1cd:	20 5f 5f             	and    %bl,0x5f(%edi)
     1d0:	4f                   	dec    %edi
     1d1:	52                   	push   %edx
     1d2:	44                   	inc    %esp
     1d3:	45                   	inc    %ebp
     1d4:	52                   	push   %edx
     1d5:	5f                   	pop    %edi
     1d6:	4c                   	dec    %esp
     1d7:	49                   	dec    %ecx
     1d8:	54                   	push   %esp
     1d9:	54                   	push   %esp
     1da:	4c                   	dec    %esp
     1db:	45                   	inc    %ebp
     1dc:	5f                   	pop    %edi
     1dd:	45                   	inc    %ebp
     1de:	4e                   	dec    %esi
     1df:	44                   	inc    %esp
     1e0:	49                   	dec    %ecx
     1e1:	41                   	inc    %ecx
     1e2:	4e                   	dec    %esi
     1e3:	5f                   	pop    %edi
     1e4:	5f                   	pop    %edi
     1e5:	00 01                	add    %al,(%ecx)
     1e7:	00 5f 5f             	add    %bl,0x5f(%edi)
     1ea:	46                   	inc    %esi
     1eb:	4c                   	dec    %esp
     1ec:	4f                   	dec    %edi
     1ed:	41                   	inc    %ecx
     1ee:	54                   	push   %esp
     1ef:	5f                   	pop    %edi
     1f0:	57                   	push   %edi
     1f1:	4f                   	dec    %edi
     1f2:	52                   	push   %edx
     1f3:	44                   	inc    %esp
     1f4:	5f                   	pop    %edi
     1f5:	4f                   	dec    %edi
     1f6:	52                   	push   %edx
     1f7:	44                   	inc    %esp
     1f8:	45                   	inc    %ebp
     1f9:	52                   	push   %edx
     1fa:	5f                   	pop    %edi
     1fb:	5f                   	pop    %edi
     1fc:	20 5f 5f             	and    %bl,0x5f(%edi)
     1ff:	4f                   	dec    %edi
     200:	52                   	push   %edx
     201:	44                   	inc    %esp
     202:	45                   	inc    %ebp
     203:	52                   	push   %edx
     204:	5f                   	pop    %edi
     205:	4c                   	dec    %esp
     206:	49                   	dec    %ecx
     207:	54                   	push   %esp
     208:	54                   	push   %esp
     209:	4c                   	dec    %esp
     20a:	45                   	inc    %ebp
     20b:	5f                   	pop    %edi
     20c:	45                   	inc    %ebp
     20d:	4e                   	dec    %esi
     20e:	44                   	inc    %esp
     20f:	49                   	dec    %ecx
     210:	41                   	inc    %ecx
     211:	4e                   	dec    %esi
     212:	5f                   	pop    %edi
     213:	5f                   	pop    %edi
     214:	00 01                	add    %al,(%ecx)
     216:	00 5f 5f             	add    %bl,0x5f(%edi)
     219:	53                   	push   %ebx
     21a:	49                   	dec    %ecx
     21b:	5a                   	pop    %edx
     21c:	45                   	inc    %ebp
     21d:	4f                   	dec    %edi
     21e:	46                   	inc    %esi
     21f:	5f                   	pop    %edi
     220:	50                   	push   %eax
     221:	4f                   	dec    %edi
     222:	49                   	dec    %ecx
     223:	4e                   	dec    %esi
     224:	54                   	push   %esp
     225:	45                   	inc    %ebp
     226:	52                   	push   %edx
     227:	5f                   	pop    %edi
     228:	5f                   	pop    %edi
     229:	20 34 00             	and    %dh,(%eax,%eax,1)
     22c:	01 00                	add    %eax,(%eax)
     22e:	5f                   	pop    %edi
     22f:	5f                   	pop    %edi
     230:	53                   	push   %ebx
     231:	49                   	dec    %ecx
     232:	5a                   	pop    %edx
     233:	45                   	inc    %ebp
     234:	5f                   	pop    %edi
     235:	54                   	push   %esp
     236:	59                   	pop    %ecx
     237:	50                   	push   %eax
     238:	45                   	inc    %ebp
     239:	5f                   	pop    %edi
     23a:	5f                   	pop    %edi
     23b:	20 75 6e             	and    %dh,0x6e(%ebp)
     23e:	73 69                	jae    2a9 <_init-0x97>
     240:	67 6e                	outsb  %ds:(%si),(%dx)
     242:	65 64 20 69 6e       	gs and %ch,%fs:%gs:0x6e(%ecx)
     247:	74 00                	je     249 <_init-0xf7>
     249:	01 00                	add    %eax,(%eax)
     24b:	5f                   	pop    %edi
     24c:	5f                   	pop    %edi
     24d:	50                   	push   %eax
     24e:	54                   	push   %esp
     24f:	52                   	push   %edx
     250:	44                   	inc    %esp
     251:	49                   	dec    %ecx
     252:	46                   	inc    %esi
     253:	46                   	inc    %esi
     254:	5f                   	pop    %edi
     255:	54                   	push   %esp
     256:	59                   	pop    %ecx
     257:	50                   	push   %eax
     258:	45                   	inc    %ebp
     259:	5f                   	pop    %edi
     25a:	5f                   	pop    %edi
     25b:	20 69 6e             	and    %ch,0x6e(%ecx)
     25e:	74 00                	je     260 <_init-0xe0>
     260:	01 00                	add    %eax,(%eax)
     262:	5f                   	pop    %edi
     263:	5f                   	pop    %edi
     264:	57                   	push   %edi
     265:	43                   	inc    %ebx
     266:	48                   	dec    %eax
     267:	41                   	inc    %ecx
     268:	52                   	push   %edx
     269:	5f                   	pop    %edi
     26a:	54                   	push   %esp
     26b:	59                   	pop    %ecx
     26c:	50                   	push   %eax
     26d:	45                   	inc    %ebp
     26e:	5f                   	pop    %edi
     26f:	5f                   	pop    %edi
     270:	20 69 6e             	and    %ch,0x6e(%ecx)
     273:	74 00                	je     275 <_init-0xcb>
     275:	01 00                	add    %eax,(%eax)
     277:	5f                   	pop    %edi
     278:	5f                   	pop    %edi
     279:	57                   	push   %edi
     27a:	49                   	dec    %ecx
     27b:	4e                   	dec    %esi
     27c:	54                   	push   %esp
     27d:	5f                   	pop    %edi
     27e:	54                   	push   %esp
     27f:	59                   	pop    %ecx
     280:	50                   	push   %eax
     281:	45                   	inc    %ebp
     282:	5f                   	pop    %edi
     283:	5f                   	pop    %edi
     284:	20 75 6e             	and    %dh,0x6e(%ebp)
     287:	73 69                	jae    2f2 <_init-0x4e>
     289:	67 6e                	outsb  %ds:(%si),(%dx)
     28b:	65 64 20 69 6e       	gs and %ch,%fs:%gs:0x6e(%ecx)
     290:	74 00                	je     292 <_init-0xae>
     292:	01 00                	add    %eax,(%eax)
     294:	5f                   	pop    %edi
     295:	5f                   	pop    %edi
     296:	49                   	dec    %ecx
     297:	4e                   	dec    %esi
     298:	54                   	push   %esp
     299:	4d                   	dec    %ebp
     29a:	41                   	inc    %ecx
     29b:	58                   	pop    %eax
     29c:	5f                   	pop    %edi
     29d:	54                   	push   %esp
     29e:	59                   	pop    %ecx
     29f:	50                   	push   %eax
     2a0:	45                   	inc    %ebp
     2a1:	5f                   	pop    %edi
     2a2:	5f                   	pop    %edi
     2a3:	20 6c 6f 6e          	and    %ch,0x6e(%edi,%ebp,2)
     2a7:	67 20 6c 6f          	and    %ch,0x6f(%si)
     2ab:	6e                   	outsb  %ds:(%esi),(%dx)
     2ac:	67 20 69 6e          	and    %ch,0x6e(%bx,%di)
     2b0:	74 00                	je     2b2 <_init-0x8e>
     2b2:	01 00                	add    %eax,(%eax)
     2b4:	5f                   	pop    %edi
     2b5:	5f                   	pop    %edi
     2b6:	55                   	push   %ebp
     2b7:	49                   	dec    %ecx
     2b8:	4e                   	dec    %esi
     2b9:	54                   	push   %esp
     2ba:	4d                   	dec    %ebp
     2bb:	41                   	inc    %ecx
     2bc:	58                   	pop    %eax
     2bd:	5f                   	pop    %edi
     2be:	54                   	push   %esp
     2bf:	59                   	pop    %ecx
     2c0:	50                   	push   %eax
     2c1:	45                   	inc    %ebp
     2c2:	5f                   	pop    %edi
     2c3:	5f                   	pop    %edi
     2c4:	20 6c 6f 6e          	and    %ch,0x6e(%edi,%ebp,2)
     2c8:	67 20 6c 6f          	and    %ch,0x6f(%si)
     2cc:	6e                   	outsb  %ds:(%esi),(%dx)
     2cd:	67 20 75 6e          	and    %dh,0x6e(%di)
     2d1:	73 69                	jae    33c <_init-0x4>
     2d3:	67 6e                	outsb  %ds:(%si),(%dx)
     2d5:	65 64 20 69 6e       	gs and %ch,%fs:%gs:0x6e(%ecx)
     2da:	74 00                	je     2dc <_init-0x64>
     2dc:	01 00                	add    %eax,(%eax)
     2de:	5f                   	pop    %edi
     2df:	5f                   	pop    %edi
     2e0:	43                   	inc    %ebx
     2e1:	48                   	dec    %eax
     2e2:	41                   	inc    %ecx
     2e3:	52                   	push   %edx
     2e4:	31 36                	xor    %esi,(%esi)
     2e6:	5f                   	pop    %edi
     2e7:	54                   	push   %esp
     2e8:	59                   	pop    %ecx
     2e9:	50                   	push   %eax
     2ea:	45                   	inc    %ebp
     2eb:	5f                   	pop    %edi
     2ec:	5f                   	pop    %edi
     2ed:	20 73 68             	and    %dh,0x68(%ebx)
     2f0:	6f                   	outsl  %ds:(%esi),(%dx)
     2f1:	72 74                	jb     367 <_init+0x27>
     2f3:	20 75 6e             	and    %dh,0x6e(%ebp)
     2f6:	73 69                	jae    361 <_init+0x21>
     2f8:	67 6e                	outsb  %ds:(%si),(%dx)
     2fa:	65 64 20 69 6e       	gs and %ch,%fs:%gs:0x6e(%ecx)
     2ff:	74 00                	je     301 <_init-0x3f>
     301:	01 00                	add    %eax,(%eax)
     303:	5f                   	pop    %edi
     304:	5f                   	pop    %edi
     305:	43                   	inc    %ebx
     306:	48                   	dec    %eax
     307:	41                   	inc    %ecx
     308:	52                   	push   %edx
     309:	33 32                	xor    (%edx),%esi
     30b:	5f                   	pop    %edi
     30c:	54                   	push   %esp
     30d:	59                   	pop    %ecx
     30e:	50                   	push   %eax
     30f:	45                   	inc    %ebp
     310:	5f                   	pop    %edi
     311:	5f                   	pop    %edi
     312:	20 75 6e             	and    %dh,0x6e(%ebp)
     315:	73 69                	jae    380 <__cxa_finalize@plt>
     317:	67 6e                	outsb  %ds:(%si),(%dx)
     319:	65 64 20 69 6e       	gs and %ch,%fs:%gs:0x6e(%ecx)
     31e:	74 00                	je     320 <_init-0x20>
     320:	01 00                	add    %eax,(%eax)
     322:	5f                   	pop    %edi
     323:	5f                   	pop    %edi
     324:	53                   	push   %ebx
     325:	49                   	dec    %ecx
     326:	47                   	inc    %edi
     327:	5f                   	pop    %edi
     328:	41                   	inc    %ecx
     329:	54                   	push   %esp
     32a:	4f                   	dec    %edi
     32b:	4d                   	dec    %ebp
     32c:	49                   	dec    %ecx
     32d:	43                   	inc    %ebx
     32e:	5f                   	pop    %edi
     32f:	54                   	push   %esp
     330:	59                   	pop    %ecx
     331:	50                   	push   %eax
     332:	45                   	inc    %ebp
     333:	5f                   	pop    %edi
     334:	5f                   	pop    %edi
     335:	20 69 6e             	and    %ch,0x6e(%ecx)
     338:	74 00                	je     33a <_init-0x6>
     33a:	01 00                	add    %eax,(%eax)
     33c:	5f                   	pop    %edi
     33d:	5f                   	pop    %edi
     33e:	49                   	dec    %ecx
     33f:	4e                   	dec    %esi
     340:	54                   	push   %esp
     341:	38 5f 54             	cmp    %bl,0x54(%edi)
     344:	59                   	pop    %ecx
     345:	50                   	push   %eax
     346:	45                   	inc    %ebp
     347:	5f                   	pop    %edi
     348:	5f                   	pop    %edi
     349:	20 73 69             	and    %dh,0x69(%ebx)
     34c:	67 6e                	outsb  %ds:(%si),(%dx)
     34e:	65 64 20 63 68       	gs and %ah,%fs:%gs:0x68(%ebx)
     353:	61                   	popa   
     354:	72 00                	jb     356 <_init+0x16>
     356:	01 00                	add    %eax,(%eax)
     358:	5f                   	pop    %edi
     359:	5f                   	pop    %edi
     35a:	49                   	dec    %ecx
     35b:	4e                   	dec    %esi
     35c:	54                   	push   %esp
     35d:	31 36                	xor    %esi,(%esi)
     35f:	5f                   	pop    %edi
     360:	54                   	push   %esp
     361:	59                   	pop    %ecx
     362:	50                   	push   %eax
     363:	45                   	inc    %ebp
     364:	5f                   	pop    %edi
     365:	5f                   	pop    %edi
     366:	20 73 68             	and    %dh,0x68(%ebx)
     369:	6f                   	outsl  %ds:(%esi),(%dx)
     36a:	72 74                	jb     3e0 <__do_global_dtors_aux+0x40>
     36c:	20 69 6e             	and    %ch,0x6e(%ecx)
     36f:	74 00                	je     371 <_init+0x31>
     371:	01 00                	add    %eax,(%eax)
     373:	5f                   	pop    %edi
     374:	5f                   	pop    %edi
     375:	49                   	dec    %ecx
     376:	4e                   	dec    %esi
     377:	54                   	push   %esp
     378:	33 32                	xor    (%edx),%esi
     37a:	5f                   	pop    %edi
     37b:	54                   	push   %esp
     37c:	59                   	pop    %ecx
     37d:	50                   	push   %eax
     37e:	45                   	inc    %ebp
     37f:	5f                   	pop    %edi
     380:	5f                   	pop    %edi
     381:	20 69 6e             	and    %ch,0x6e(%ecx)
     384:	74 00                	je     386 <__cxa_finalize@plt+0x6>
     386:	01 00                	add    %eax,(%eax)
     388:	5f                   	pop    %edi
     389:	5f                   	pop    %edi
     38a:	49                   	dec    %ecx
     38b:	4e                   	dec    %esi
     38c:	54                   	push   %esp
     38d:	36                   	ss
     38e:	34 5f                	xor    $0x5f,%al
     390:	54                   	push   %esp
     391:	59                   	pop    %ecx
     392:	50                   	push   %eax
     393:	45                   	inc    %ebp
     394:	5f                   	pop    %edi
     395:	5f                   	pop    %edi
     396:	20 6c 6f 6e          	and    %ch,0x6e(%edi,%ebp,2)
     39a:	67 20 6c 6f          	and    %ch,0x6f(%si)
     39e:	6e                   	outsb  %ds:(%esi),(%dx)
     39f:	67 20 69 6e          	and    %ch,0x6e(%bx,%di)
     3a3:	74 00                	je     3a5 <__do_global_dtors_aux+0x5>
     3a5:	01 00                	add    %eax,(%eax)
     3a7:	5f                   	pop    %edi
     3a8:	5f                   	pop    %edi
     3a9:	55                   	push   %ebp
     3aa:	49                   	dec    %ecx
     3ab:	4e                   	dec    %esi
     3ac:	54                   	push   %esp
     3ad:	38 5f 54             	cmp    %bl,0x54(%edi)
     3b0:	59                   	pop    %ecx
     3b1:	50                   	push   %eax
     3b2:	45                   	inc    %ebp
     3b3:	5f                   	pop    %edi
     3b4:	5f                   	pop    %edi
     3b5:	20 75 6e             	and    %dh,0x6e(%ebp)
     3b8:	73 69                	jae    423 <frame_dummy+0x3>
     3ba:	67 6e                	outsb  %ds:(%si),(%dx)
     3bc:	65 64 20 63 68       	gs and %ah,%fs:%gs:0x68(%ebx)
     3c1:	61                   	popa   
     3c2:	72 00                	jb     3c4 <__do_global_dtors_aux+0x24>
     3c4:	01 00                	add    %eax,(%eax)
     3c6:	5f                   	pop    %edi
     3c7:	5f                   	pop    %edi
     3c8:	55                   	push   %ebp
     3c9:	49                   	dec    %ecx
     3ca:	4e                   	dec    %esi
     3cb:	54                   	push   %esp
     3cc:	31 36                	xor    %esi,(%esi)
     3ce:	5f                   	pop    %edi
     3cf:	54                   	push   %esp
     3d0:	59                   	pop    %ecx
     3d1:	50                   	push   %eax
     3d2:	45                   	inc    %ebp
     3d3:	5f                   	pop    %edi
     3d4:	5f                   	pop    %edi
     3d5:	20 73 68             	and    %dh,0x68(%ebx)
     3d8:	6f                   	outsl  %ds:(%esi),(%dx)
     3d9:	72 74                	jb     44f <frame_dummy+0x2f>
     3db:	20 75 6e             	and    %dh,0x6e(%ebp)
     3de:	73 69                	jae    449 <frame_dummy+0x29>
     3e0:	67 6e                	outsb  %ds:(%si),(%dx)
     3e2:	65 64 20 69 6e       	gs and %ch,%fs:%gs:0x6e(%ecx)
     3e7:	74 00                	je     3e9 <__do_global_dtors_aux+0x49>
     3e9:	01 00                	add    %eax,(%eax)
     3eb:	5f                   	pop    %edi
     3ec:	5f                   	pop    %edi
     3ed:	55                   	push   %ebp
     3ee:	49                   	dec    %ecx
     3ef:	4e                   	dec    %esi
     3f0:	54                   	push   %esp
     3f1:	33 32                	xor    (%edx),%esi
     3f3:	5f                   	pop    %edi
     3f4:	54                   	push   %esp
     3f5:	59                   	pop    %ecx
     3f6:	50                   	push   %eax
     3f7:	45                   	inc    %ebp
     3f8:	5f                   	pop    %edi
     3f9:	5f                   	pop    %edi
     3fa:	20 75 6e             	and    %dh,0x6e(%ebp)
     3fd:	73 69                	jae    468 <libtest1+0xc>
     3ff:	67 6e                	outsb  %ds:(%si),(%dx)
     401:	65 64 20 69 6e       	gs and %ch,%fs:%gs:0x6e(%ecx)
     406:	74 00                	je     408 <__do_global_dtors_aux+0x68>
     408:	01 00                	add    %eax,(%eax)
     40a:	5f                   	pop    %edi
     40b:	5f                   	pop    %edi
     40c:	55                   	push   %ebp
     40d:	49                   	dec    %ecx
     40e:	4e                   	dec    %esi
     40f:	54                   	push   %esp
     410:	36                   	ss
     411:	34 5f                	xor    $0x5f,%al
     413:	54                   	push   %esp
     414:	59                   	pop    %ecx
     415:	50                   	push   %eax
     416:	45                   	inc    %ebp
     417:	5f                   	pop    %edi
     418:	5f                   	pop    %edi
     419:	20 6c 6f 6e          	and    %ch,0x6e(%edi,%ebp,2)
     41d:	67 20 6c 6f          	and    %ch,0x6f(%si)
     421:	6e                   	outsb  %ds:(%esi),(%dx)
     422:	67 20 75 6e          	and    %dh,0x6e(%di)
     426:	73 69                	jae    491 <__do_global_ctors_aux+0x11>
     428:	67 6e                	outsb  %ds:(%si),(%dx)
     42a:	65 64 20 69 6e       	gs and %ch,%fs:%gs:0x6e(%ecx)
     42f:	74 00                	je     431 <frame_dummy+0x11>
     431:	01 00                	add    %eax,(%eax)
     433:	5f                   	pop    %edi
     434:	5f                   	pop    %edi
     435:	49                   	dec    %ecx
     436:	4e                   	dec    %esi
     437:	54                   	push   %esp
     438:	5f                   	pop    %edi
     439:	4c                   	dec    %esp
     43a:	45                   	inc    %ebp
     43b:	41                   	inc    %ecx
     43c:	53                   	push   %ebx
     43d:	54                   	push   %esp
     43e:	38 5f 54             	cmp    %bl,0x54(%edi)
     441:	59                   	pop    %ecx
     442:	50                   	push   %eax
     443:	45                   	inc    %ebp
     444:	5f                   	pop    %edi
     445:	5f                   	pop    %edi
     446:	20 73 69             	and    %dh,0x69(%ebx)
     449:	67 6e                	outsb  %ds:(%si),(%dx)
     44b:	65 64 20 63 68       	gs and %ah,%fs:%gs:0x68(%ebx)
     450:	61                   	popa   
     451:	72 00                	jb     453 <frame_dummy+0x33>
     453:	01 00                	add    %eax,(%eax)
     455:	5f                   	pop    %edi
     456:	5f                   	pop    %edi
     457:	49                   	dec    %ecx
     458:	4e                   	dec    %esi
     459:	54                   	push   %esp
     45a:	5f                   	pop    %edi
     45b:	4c                   	dec    %esp
     45c:	45                   	inc    %ebp
     45d:	41                   	inc    %ecx
     45e:	53                   	push   %ebx
     45f:	54                   	push   %esp
     460:	31 36                	xor    %esi,(%esi)
     462:	5f                   	pop    %edi
     463:	54                   	push   %esp
     464:	59                   	pop    %ecx
     465:	50                   	push   %eax
     466:	45                   	inc    %ebp
     467:	5f                   	pop    %edi
     468:	5f                   	pop    %edi
     469:	20 73 68             	and    %dh,0x68(%ebx)
     46c:	6f                   	outsl  %ds:(%esi),(%dx)
     46d:	72 74                	jb     4e3 <_fini+0x2b>
     46f:	20 69 6e             	and    %ch,0x6e(%ecx)
     472:	74 00                	je     474 <libtest1+0x18>
     474:	01 00                	add    %eax,(%eax)
     476:	5f                   	pop    %edi
     477:	5f                   	pop    %edi
     478:	49                   	dec    %ecx
     479:	4e                   	dec    %esi
     47a:	54                   	push   %esp
     47b:	5f                   	pop    %edi
     47c:	4c                   	dec    %esp
     47d:	45                   	inc    %ebp
     47e:	41                   	inc    %ecx
     47f:	53                   	push   %ebx
     480:	54                   	push   %esp
     481:	33 32                	xor    (%edx),%esi
     483:	5f                   	pop    %edi
     484:	54                   	push   %esp
     485:	59                   	pop    %ecx
     486:	50                   	push   %eax
     487:	45                   	inc    %ebp
     488:	5f                   	pop    %edi
     489:	5f                   	pop    %edi
     48a:	20 69 6e             	and    %ch,0x6e(%ecx)
     48d:	74 00                	je     48f <__do_global_ctors_aux+0xf>
     48f:	01 00                	add    %eax,(%eax)
     491:	5f                   	pop    %edi
     492:	5f                   	pop    %edi
     493:	49                   	dec    %ecx
     494:	4e                   	dec    %esi
     495:	54                   	push   %esp
     496:	5f                   	pop    %edi
     497:	4c                   	dec    %esp
     498:	45                   	inc    %ebp
     499:	41                   	inc    %ecx
     49a:	53                   	push   %ebx
     49b:	54                   	push   %esp
     49c:	36                   	ss
     49d:	34 5f                	xor    $0x5f,%al
     49f:	54                   	push   %esp
     4a0:	59                   	pop    %ecx
     4a1:	50                   	push   %eax
     4a2:	45                   	inc    %ebp
     4a3:	5f                   	pop    %edi
     4a4:	5f                   	pop    %edi
     4a5:	20 6c 6f 6e          	and    %ch,0x6e(%edi,%ebp,2)
     4a9:	67 20 6c 6f          	and    %ch,0x6f(%si)
     4ad:	6e                   	outsb  %ds:(%esi),(%dx)
     4ae:	67 20 69 6e          	and    %ch,0x6e(%bx,%di)
     4b2:	74 00                	je     4b4 <__do_global_ctors_aux+0x34>
     4b4:	01 00                	add    %eax,(%eax)
     4b6:	5f                   	pop    %edi
     4b7:	5f                   	pop    %edi
     4b8:	55                   	push   %ebp
     4b9:	49                   	dec    %ecx
     4ba:	4e                   	dec    %esi
     4bb:	54                   	push   %esp
     4bc:	5f                   	pop    %edi
     4bd:	4c                   	dec    %esp
     4be:	45                   	inc    %ebp
     4bf:	41                   	inc    %ecx
     4c0:	53                   	push   %ebx
     4c1:	54                   	push   %esp
     4c2:	38 5f 54             	cmp    %bl,0x54(%edi)
     4c5:	59                   	pop    %ecx
     4c6:	50                   	push   %eax
     4c7:	45                   	inc    %ebp
     4c8:	5f                   	pop    %edi
     4c9:	5f                   	pop    %edi
     4ca:	20 75 6e             	and    %dh,0x6e(%ebp)
     4cd:	73 69                	jae    538 <_fini+0x80>
     4cf:	67 6e                	outsb  %ds:(%si),(%dx)
     4d1:	65 64 20 63 68       	gs and %ah,%fs:%gs:0x68(%ebx)
     4d6:	61                   	popa   
     4d7:	72 00                	jb     4d9 <_fini+0x21>
     4d9:	01 00                	add    %eax,(%eax)
     4db:	5f                   	pop    %edi
     4dc:	5f                   	pop    %edi
     4dd:	55                   	push   %ebp
     4de:	49                   	dec    %ecx
     4df:	4e                   	dec    %esi
     4e0:	54                   	push   %esp
     4e1:	5f                   	pop    %edi
     4e2:	4c                   	dec    %esp
     4e3:	45                   	inc    %ebp
     4e4:	41                   	inc    %ecx
     4e5:	53                   	push   %ebx
     4e6:	54                   	push   %esp
     4e7:	31 36                	xor    %esi,(%esi)
     4e9:	5f                   	pop    %edi
     4ea:	54                   	push   %esp
     4eb:	59                   	pop    %ecx
     4ec:	50                   	push   %eax
     4ed:	45                   	inc    %ebp
     4ee:	5f                   	pop    %edi
     4ef:	5f                   	pop    %edi
     4f0:	20 73 68             	and    %dh,0x68(%ebx)
     4f3:	6f                   	outsl  %ds:(%esi),(%dx)
     4f4:	72 74                	jb     56a <_fini+0xb2>
     4f6:	20 75 6e             	and    %dh,0x6e(%ebp)
     4f9:	73 69                	jae    564 <_fini+0xac>
     4fb:	67 6e                	outsb  %ds:(%si),(%dx)
     4fd:	65 64 20 69 6e       	gs and %ch,%fs:%gs:0x6e(%ecx)
     502:	74 00                	je     504 <_fini+0x4c>
     504:	01 00                	add    %eax,(%eax)
     506:	5f                   	pop    %edi
     507:	5f                   	pop    %edi
     508:	55                   	push   %ebp
     509:	49                   	dec    %ecx
     50a:	4e                   	dec    %esi
     50b:	54                   	push   %esp
     50c:	5f                   	pop    %edi
     50d:	4c                   	dec    %esp
     50e:	45                   	inc    %ebp
     50f:	41                   	inc    %ecx
     510:	53                   	push   %ebx
     511:	54                   	push   %esp
     512:	33 32                	xor    (%edx),%esi
     514:	5f                   	pop    %edi
     515:	54                   	push   %esp
     516:	59                   	pop    %ecx
     517:	50                   	push   %eax
     518:	45                   	inc    %ebp
     519:	5f                   	pop    %edi
     51a:	5f                   	pop    %edi
     51b:	20 75 6e             	and    %dh,0x6e(%ebp)
     51e:	73 69                	jae    589 <_fini+0xd1>
     520:	67 6e                	outsb  %ds:(%si),(%dx)
     522:	65 64 20 69 6e       	gs and %ch,%fs:%gs:0x6e(%ecx)
     527:	74 00                	je     529 <_fini+0x71>
     529:	01 00                	add    %eax,(%eax)
     52b:	5f                   	pop    %edi
     52c:	5f                   	pop    %edi
     52d:	55                   	push   %ebp
     52e:	49                   	dec    %ecx
     52f:	4e                   	dec    %esi
     530:	54                   	push   %esp
     531:	5f                   	pop    %edi
     532:	4c                   	dec    %esp
     533:	45                   	inc    %ebp
     534:	41                   	inc    %ecx
     535:	53                   	push   %ebx
     536:	54                   	push   %esp
     537:	36                   	ss
     538:	34 5f                	xor    $0x5f,%al
     53a:	54                   	push   %esp
     53b:	59                   	pop    %ecx
     53c:	50                   	push   %eax
     53d:	45                   	inc    %ebp
     53e:	5f                   	pop    %edi
     53f:	5f                   	pop    %edi
     540:	20 6c 6f 6e          	and    %ch,0x6e(%edi,%ebp,2)
     544:	67 20 6c 6f          	and    %ch,0x6f(%si)
     548:	6e                   	outsb  %ds:(%esi),(%dx)
     549:	67 20 75 6e          	and    %dh,0x6e(%di)
     54d:	73 69                	jae    5b8 <__FRAME_END__+0x14>
     54f:	67 6e                	outsb  %ds:(%si),(%dx)
     551:	65 64 20 69 6e       	gs and %ch,%fs:%gs:0x6e(%ecx)
     556:	74 00                	je     558 <_fini+0xa0>
     558:	01 00                	add    %eax,(%eax)
     55a:	5f                   	pop    %edi
     55b:	5f                   	pop    %edi
     55c:	49                   	dec    %ecx
     55d:	4e                   	dec    %esi
     55e:	54                   	push   %esp
     55f:	5f                   	pop    %edi
     560:	46                   	inc    %esi
     561:	41                   	inc    %ecx
     562:	53                   	push   %ebx
     563:	54                   	push   %esp
     564:	38 5f 54             	cmp    %bl,0x54(%edi)
     567:	59                   	pop    %ecx
     568:	50                   	push   %eax
     569:	45                   	inc    %ebp
     56a:	5f                   	pop    %edi
     56b:	5f                   	pop    %edi
     56c:	20 73 69             	and    %dh,0x69(%ebx)
     56f:	67 6e                	outsb  %ds:(%si),(%dx)
     571:	65 64 20 63 68       	gs and %ah,%fs:%gs:0x68(%ebx)
     576:	61                   	popa   
     577:	72 00                	jb     579 <_fini+0xc1>
     579:	01 00                	add    %eax,(%eax)
     57b:	5f                   	pop    %edi
     57c:	5f                   	pop    %edi
     57d:	49                   	dec    %ecx
     57e:	4e                   	dec    %esi
     57f:	54                   	push   %esp
     580:	5f                   	pop    %edi
     581:	46                   	inc    %esi
     582:	41                   	inc    %ecx
     583:	53                   	push   %ebx
     584:	54                   	push   %esp
     585:	31 36                	xor    %esi,(%esi)
     587:	5f                   	pop    %edi
     588:	54                   	push   %esp
     589:	59                   	pop    %ecx
     58a:	50                   	push   %eax
     58b:	45                   	inc    %ebp
     58c:	5f                   	pop    %edi
     58d:	5f                   	pop    %edi
     58e:	20 69 6e             	and    %ch,0x6e(%ecx)
     591:	74 00                	je     593 <_fini+0xdb>
     593:	01 00                	add    %eax,(%eax)
     595:	5f                   	pop    %edi
     596:	5f                   	pop    %edi
     597:	49                   	dec    %ecx
     598:	4e                   	dec    %esi
     599:	54                   	push   %esp
     59a:	5f                   	pop    %edi
     59b:	46                   	inc    %esi
     59c:	41                   	inc    %ecx
     59d:	53                   	push   %ebx
     59e:	54                   	push   %esp
     59f:	33 32                	xor    (%edx),%esi
     5a1:	5f                   	pop    %edi
     5a2:	54                   	push   %esp
     5a3:	59                   	pop    %ecx
     5a4:	50                   	push   %eax
     5a5:	45                   	inc    %ebp
     5a6:	5f                   	pop    %edi
     5a7:	5f                   	pop    %edi
     5a8:	20 69 6e             	and    %ch,0x6e(%ecx)
     5ab:	74 00                	je     5ad <__FRAME_END__+0x9>
     5ad:	01 00                	add    %eax,(%eax)
     5af:	5f                   	pop    %edi
     5b0:	5f                   	pop    %edi
     5b1:	49                   	dec    %ecx
     5b2:	4e                   	dec    %esi
     5b3:	54                   	push   %esp
     5b4:	5f                   	pop    %edi
     5b5:	46                   	inc    %esi
     5b6:	41                   	inc    %ecx
     5b7:	53                   	push   %ebx
     5b8:	54                   	push   %esp
     5b9:	36                   	ss
     5ba:	34 5f                	xor    $0x5f,%al
     5bc:	54                   	push   %esp
     5bd:	59                   	pop    %ecx
     5be:	50                   	push   %eax
     5bf:	45                   	inc    %ebp
     5c0:	5f                   	pop    %edi
     5c1:	5f                   	pop    %edi
     5c2:	20 6c 6f 6e          	and    %ch,0x6e(%edi,%ebp,2)
     5c6:	67 20 6c 6f          	and    %ch,0x6f(%si)
     5ca:	6e                   	outsb  %ds:(%esi),(%dx)
     5cb:	67 20 69 6e          	and    %ch,0x6e(%bx,%di)
     5cf:	74 00                	je     5d1 <__FRAME_END__+0x2d>
     5d1:	01 00                	add    %eax,(%eax)
     5d3:	5f                   	pop    %edi
     5d4:	5f                   	pop    %edi
     5d5:	55                   	push   %ebp
     5d6:	49                   	dec    %ecx
     5d7:	4e                   	dec    %esi
     5d8:	54                   	push   %esp
     5d9:	5f                   	pop    %edi
     5da:	46                   	inc    %esi
     5db:	41                   	inc    %ecx
     5dc:	53                   	push   %ebx
     5dd:	54                   	push   %esp
     5de:	38 5f 54             	cmp    %bl,0x54(%edi)
     5e1:	59                   	pop    %ecx
     5e2:	50                   	push   %eax
     5e3:	45                   	inc    %ebp
     5e4:	5f                   	pop    %edi
     5e5:	5f                   	pop    %edi
     5e6:	20 75 6e             	and    %dh,0x6e(%ebp)
     5e9:	73 69                	jae    654 <__FRAME_END__+0xb0>
     5eb:	67 6e                	outsb  %ds:(%si),(%dx)
     5ed:	65 64 20 63 68       	gs and %ah,%fs:%gs:0x68(%ebx)
     5f2:	61                   	popa   
     5f3:	72 00                	jb     5f5 <__FRAME_END__+0x51>
     5f5:	01 00                	add    %eax,(%eax)
     5f7:	5f                   	pop    %edi
     5f8:	5f                   	pop    %edi
     5f9:	55                   	push   %ebp
     5fa:	49                   	dec    %ecx
     5fb:	4e                   	dec    %esi
     5fc:	54                   	push   %esp
     5fd:	5f                   	pop    %edi
     5fe:	46                   	inc    %esi
     5ff:	41                   	inc    %ecx
     600:	53                   	push   %ebx
     601:	54                   	push   %esp
     602:	31 36                	xor    %esi,(%esi)
     604:	5f                   	pop    %edi
     605:	54                   	push   %esp
     606:	59                   	pop    %ecx
     607:	50                   	push   %eax
     608:	45                   	inc    %ebp
     609:	5f                   	pop    %edi
     60a:	5f                   	pop    %edi
     60b:	20 75 6e             	and    %dh,0x6e(%ebp)
     60e:	73 69                	jae    679 <__FRAME_END__+0xd5>
     610:	67 6e                	outsb  %ds:(%si),(%dx)
     612:	65 64 20 69 6e       	gs and %ch,%fs:%gs:0x6e(%ecx)
     617:	74 00                	je     619 <__FRAME_END__+0x75>
     619:	01 00                	add    %eax,(%eax)
     61b:	5f                   	pop    %edi
     61c:	5f                   	pop    %edi
     61d:	55                   	push   %ebp
     61e:	49                   	dec    %ecx
     61f:	4e                   	dec    %esi
     620:	54                   	push   %esp
     621:	5f                   	pop    %edi
     622:	46                   	inc    %esi
     623:	41                   	inc    %ecx
     624:	53                   	push   %ebx
     625:	54                   	push   %esp
     626:	33 32                	xor    (%edx),%esi
     628:	5f                   	pop    %edi
     629:	54                   	push   %esp
     62a:	59                   	pop    %ecx
     62b:	50                   	push   %eax
     62c:	45                   	inc    %ebp
     62d:	5f                   	pop    %edi
     62e:	5f                   	pop    %edi
     62f:	20 75 6e             	and    %dh,0x6e(%ebp)
     632:	73 69                	jae    69d <__FRAME_END__+0xf9>
     634:	67 6e                	outsb  %ds:(%si),(%dx)
     636:	65 64 20 69 6e       	gs and %ch,%fs:%gs:0x6e(%ecx)
     63b:	74 00                	je     63d <__FRAME_END__+0x99>
     63d:	01 00                	add    %eax,(%eax)
     63f:	5f                   	pop    %edi
     640:	5f                   	pop    %edi
     641:	55                   	push   %ebp
     642:	49                   	dec    %ecx
     643:	4e                   	dec    %esi
     644:	54                   	push   %esp
     645:	5f                   	pop    %edi
     646:	46                   	inc    %esi
     647:	41                   	inc    %ecx
     648:	53                   	push   %ebx
     649:	54                   	push   %esp
     64a:	36                   	ss
     64b:	34 5f                	xor    $0x5f,%al
     64d:	54                   	push   %esp
     64e:	59                   	pop    %ecx
     64f:	50                   	push   %eax
     650:	45                   	inc    %ebp
     651:	5f                   	pop    %edi
     652:	5f                   	pop    %edi
     653:	20 6c 6f 6e          	and    %ch,0x6e(%edi,%ebp,2)
     657:	67 20 6c 6f          	and    %ch,0x6f(%si)
     65b:	6e                   	outsb  %ds:(%esi),(%dx)
     65c:	67 20 75 6e          	and    %dh,0x6e(%di)
     660:	73 69                	jae    6cb <__FRAME_END__+0x127>
     662:	67 6e                	outsb  %ds:(%si),(%dx)
     664:	65 64 20 69 6e       	gs and %ch,%fs:%gs:0x6e(%ecx)
     669:	74 00                	je     66b <__FRAME_END__+0xc7>
     66b:	01 00                	add    %eax,(%eax)
     66d:	5f                   	pop    %edi
     66e:	5f                   	pop    %edi
     66f:	49                   	dec    %ecx
     670:	4e                   	dec    %esi
     671:	54                   	push   %esp
     672:	50                   	push   %eax
     673:	54                   	push   %esp
     674:	52                   	push   %edx
     675:	5f                   	pop    %edi
     676:	54                   	push   %esp
     677:	59                   	pop    %ecx
     678:	50                   	push   %eax
     679:	45                   	inc    %ebp
     67a:	5f                   	pop    %edi
     67b:	5f                   	pop    %edi
     67c:	20 69 6e             	and    %ch,0x6e(%ecx)
     67f:	74 00                	je     681 <__FRAME_END__+0xdd>
     681:	01 00                	add    %eax,(%eax)
     683:	5f                   	pop    %edi
     684:	5f                   	pop    %edi
     685:	55                   	push   %ebp
     686:	49                   	dec    %ecx
     687:	4e                   	dec    %esi
     688:	54                   	push   %esp
     689:	50                   	push   %eax
     68a:	54                   	push   %esp
     68b:	52                   	push   %edx
     68c:	5f                   	pop    %edi
     68d:	54                   	push   %esp
     68e:	59                   	pop    %ecx
     68f:	50                   	push   %eax
     690:	45                   	inc    %ebp
     691:	5f                   	pop    %edi
     692:	5f                   	pop    %edi
     693:	20 75 6e             	and    %dh,0x6e(%ebp)
     696:	73 69                	jae    701 <__FRAME_END__+0x15d>
     698:	67 6e                	outsb  %ds:(%si),(%dx)
     69a:	65 64 20 69 6e       	gs and %ch,%fs:%gs:0x6e(%ecx)
     69f:	74 00                	je     6a1 <__FRAME_END__+0xfd>
     6a1:	01 00                	add    %eax,(%eax)
     6a3:	5f                   	pop    %edi
     6a4:	5f                   	pop    %edi
     6a5:	47                   	inc    %edi
     6a6:	58                   	pop    %eax
     6a7:	58                   	pop    %eax
     6a8:	5f                   	pop    %edi
     6a9:	41                   	inc    %ecx
     6aa:	42                   	inc    %edx
     6ab:	49                   	dec    %ecx
     6ac:	5f                   	pop    %edi
     6ad:	56                   	push   %esi
     6ae:	45                   	inc    %ebp
     6af:	52                   	push   %edx
     6b0:	53                   	push   %ebx
     6b1:	49                   	dec    %ecx
     6b2:	4f                   	dec    %edi
     6b3:	4e                   	dec    %esi
     6b4:	20 31                	and    %dh,(%ecx)
     6b6:	30 30                	xor    %dh,(%eax)
     6b8:	32 00                	xor    (%eax),%al
     6ba:	01 00                	add    %eax,(%eax)
     6bc:	5f                   	pop    %edi
     6bd:	5f                   	pop    %edi
     6be:	53                   	push   %ebx
     6bf:	43                   	inc    %ebx
     6c0:	48                   	dec    %eax
     6c1:	41                   	inc    %ecx
     6c2:	52                   	push   %edx
     6c3:	5f                   	pop    %edi
     6c4:	4d                   	dec    %ebp
     6c5:	41                   	inc    %ecx
     6c6:	58                   	pop    %eax
     6c7:	5f                   	pop    %edi
     6c8:	5f                   	pop    %edi
     6c9:	20 31                	and    %dh,(%ecx)
     6cb:	32 37                	xor    (%edi),%dh
     6cd:	00 01                	add    %al,(%ecx)
     6cf:	00 5f 5f             	add    %bl,0x5f(%edi)
     6d2:	53                   	push   %ebx
     6d3:	48                   	dec    %eax
     6d4:	52                   	push   %edx
     6d5:	54                   	push   %esp
     6d6:	5f                   	pop    %edi
     6d7:	4d                   	dec    %ebp
     6d8:	41                   	inc    %ecx
     6d9:	58                   	pop    %eax
     6da:	5f                   	pop    %edi
     6db:	5f                   	pop    %edi
     6dc:	20 33                	and    %dh,(%ebx)
     6de:	32 37                	xor    (%edi),%dh
     6e0:	36                   	ss
     6e1:	37                   	aaa    
     6e2:	00 01                	add    %al,(%ecx)
     6e4:	00 5f 5f             	add    %bl,0x5f(%edi)
     6e7:	49                   	dec    %ecx
     6e8:	4e                   	dec    %esi
     6e9:	54                   	push   %esp
     6ea:	5f                   	pop    %edi
     6eb:	4d                   	dec    %ebp
     6ec:	41                   	inc    %ecx
     6ed:	58                   	pop    %eax
     6ee:	5f                   	pop    %edi
     6ef:	5f                   	pop    %edi
     6f0:	20 32                	and    %dh,(%edx)
     6f2:	31 34 37             	xor    %esi,(%edi,%esi,1)
     6f5:	34 38                	xor    $0x38,%al
     6f7:	33 36                	xor    (%esi),%esi
     6f9:	34 37                	xor    $0x37,%al
     6fb:	00 01                	add    %al,(%ecx)
     6fd:	00 5f 5f             	add    %bl,0x5f(%edi)
     700:	4c                   	dec    %esp
     701:	4f                   	dec    %edi
     702:	4e                   	dec    %esi
     703:	47                   	inc    %edi
     704:	5f                   	pop    %edi
     705:	4d                   	dec    %ebp
     706:	41                   	inc    %ecx
     707:	58                   	pop    %eax
     708:	5f                   	pop    %edi
     709:	5f                   	pop    %edi
     70a:	20 32                	and    %dh,(%edx)
     70c:	31 34 37             	xor    %esi,(%edi,%esi,1)
     70f:	34 38                	xor    $0x38,%al
     711:	33 36                	xor    (%esi),%esi
     713:	34 37                	xor    $0x37,%al
     715:	4c                   	dec    %esp
     716:	00 01                	add    %al,(%ecx)
     718:	00 5f 5f             	add    %bl,0x5f(%edi)
     71b:	4c                   	dec    %esp
     71c:	4f                   	dec    %edi
     71d:	4e                   	dec    %esi
     71e:	47                   	inc    %edi
     71f:	5f                   	pop    %edi
     720:	4c                   	dec    %esp
     721:	4f                   	dec    %edi
     722:	4e                   	dec    %esi
     723:	47                   	inc    %edi
     724:	5f                   	pop    %edi
     725:	4d                   	dec    %ebp
     726:	41                   	inc    %ecx
     727:	58                   	pop    %eax
     728:	5f                   	pop    %edi
     729:	5f                   	pop    %edi
     72a:	20 39                	and    %bh,(%ecx)
     72c:	32 32                	xor    (%edx),%dh
     72e:	33 33                	xor    (%ebx),%esi
     730:	37                   	aaa    
     731:	32 30                	xor    (%eax),%dh
     733:	33 36                	xor    (%esi),%esi
     735:	38 35 34 37 37 35    	cmp    %dh,0x35373734
     73b:	38 30                	cmp    %dh,(%eax)
     73d:	37                   	aaa    
     73e:	4c                   	dec    %esp
     73f:	4c                   	dec    %esp
     740:	00 01                	add    %al,(%ecx)
     742:	00 5f 5f             	add    %bl,0x5f(%edi)
     745:	57                   	push   %edi
     746:	43                   	inc    %ebx
     747:	48                   	dec    %eax
     748:	41                   	inc    %ecx
     749:	52                   	push   %edx
     74a:	5f                   	pop    %edi
     74b:	4d                   	dec    %ebp
     74c:	41                   	inc    %ecx
     74d:	58                   	pop    %eax
     74e:	5f                   	pop    %edi
     74f:	5f                   	pop    %edi
     750:	20 32                	and    %dh,(%edx)
     752:	31 34 37             	xor    %esi,(%edi,%esi,1)
     755:	34 38                	xor    $0x38,%al
     757:	33 36                	xor    (%esi),%esi
     759:	34 37                	xor    $0x37,%al
     75b:	00 01                	add    %al,(%ecx)
     75d:	00 5f 5f             	add    %bl,0x5f(%edi)
     760:	57                   	push   %edi
     761:	43                   	inc    %ebx
     762:	48                   	dec    %eax
     763:	41                   	inc    %ecx
     764:	52                   	push   %edx
     765:	5f                   	pop    %edi
     766:	4d                   	dec    %ebp
     767:	49                   	dec    %ecx
     768:	4e                   	dec    %esi
     769:	5f                   	pop    %edi
     76a:	5f                   	pop    %edi
     76b:	20 28                	and    %ch,(%eax)
     76d:	2d 5f 5f 57 43       	sub    $0x43575f5f,%eax
     772:	48                   	dec    %eax
     773:	41                   	inc    %ecx
     774:	52                   	push   %edx
     775:	5f                   	pop    %edi
     776:	4d                   	dec    %ebp
     777:	41                   	inc    %ecx
     778:	58                   	pop    %eax
     779:	5f                   	pop    %edi
     77a:	5f                   	pop    %edi
     77b:	20 2d 20 31 29 00    	and    %ch,0x293120
     781:	01 00                	add    %eax,(%eax)
     783:	5f                   	pop    %edi
     784:	5f                   	pop    %edi
     785:	57                   	push   %edi
     786:	49                   	dec    %ecx
     787:	4e                   	dec    %esi
     788:	54                   	push   %esp
     789:	5f                   	pop    %edi
     78a:	4d                   	dec    %ebp
     78b:	41                   	inc    %ecx
     78c:	58                   	pop    %eax
     78d:	5f                   	pop    %edi
     78e:	5f                   	pop    %edi
     78f:	20 34 32             	and    %dh,(%edx,%esi,1)
     792:	39 34 39             	cmp    %esi,(%ecx,%edi,1)
     795:	36                   	ss
     796:	37                   	aaa    
     797:	32 39                	xor    (%ecx),%bh
     799:	35 55 00 01 00       	xor    $0x10055,%eax
     79e:	5f                   	pop    %edi
     79f:	5f                   	pop    %edi
     7a0:	57                   	push   %edi
     7a1:	49                   	dec    %ecx
     7a2:	4e                   	dec    %esi
     7a3:	54                   	push   %esp
     7a4:	5f                   	pop    %edi
     7a5:	4d                   	dec    %ebp
     7a6:	49                   	dec    %ecx
     7a7:	4e                   	dec    %esi
     7a8:	5f                   	pop    %edi
     7a9:	5f                   	pop    %edi
     7aa:	20 30                	and    %dh,(%eax)
     7ac:	55                   	push   %ebp
     7ad:	00 01                	add    %al,(%ecx)
     7af:	00 5f 5f             	add    %bl,0x5f(%edi)
     7b2:	50                   	push   %eax
     7b3:	54                   	push   %esp
     7b4:	52                   	push   %edx
     7b5:	44                   	inc    %esp
     7b6:	49                   	dec    %ecx
     7b7:	46                   	inc    %esi
     7b8:	46                   	inc    %esi
     7b9:	5f                   	pop    %edi
     7ba:	4d                   	dec    %ebp
     7bb:	41                   	inc    %ecx
     7bc:	58                   	pop    %eax
     7bd:	5f                   	pop    %edi
     7be:	5f                   	pop    %edi
     7bf:	20 32                	and    %dh,(%edx)
     7c1:	31 34 37             	xor    %esi,(%edi,%esi,1)
     7c4:	34 38                	xor    $0x38,%al
     7c6:	33 36                	xor    (%esi),%esi
     7c8:	34 37                	xor    $0x37,%al
     7ca:	00 01                	add    %al,(%ecx)
     7cc:	00 5f 5f             	add    %bl,0x5f(%edi)
     7cf:	53                   	push   %ebx
     7d0:	49                   	dec    %ecx
     7d1:	5a                   	pop    %edx
     7d2:	45                   	inc    %ebp
     7d3:	5f                   	pop    %edi
     7d4:	4d                   	dec    %ebp
     7d5:	41                   	inc    %ecx
     7d6:	58                   	pop    %eax
     7d7:	5f                   	pop    %edi
     7d8:	5f                   	pop    %edi
     7d9:	20 34 32             	and    %dh,(%edx,%esi,1)
     7dc:	39 34 39             	cmp    %esi,(%ecx,%edi,1)
     7df:	36                   	ss
     7e0:	37                   	aaa    
     7e1:	32 39                	xor    (%ecx),%bh
     7e3:	35 55 00 01 00       	xor    $0x10055,%eax
     7e8:	5f                   	pop    %edi
     7e9:	5f                   	pop    %edi
     7ea:	49                   	dec    %ecx
     7eb:	4e                   	dec    %esi
     7ec:	54                   	push   %esp
     7ed:	4d                   	dec    %ebp
     7ee:	41                   	inc    %ecx
     7ef:	58                   	pop    %eax
     7f0:	5f                   	pop    %edi
     7f1:	4d                   	dec    %ebp
     7f2:	41                   	inc    %ecx
     7f3:	58                   	pop    %eax
     7f4:	5f                   	pop    %edi
     7f5:	5f                   	pop    %edi
     7f6:	20 39                	and    %bh,(%ecx)
     7f8:	32 32                	xor    (%edx),%dh
     7fa:	33 33                	xor    (%ebx),%esi
     7fc:	37                   	aaa    
     7fd:	32 30                	xor    (%eax),%dh
     7ff:	33 36                	xor    (%esi),%esi
     801:	38 35 34 37 37 35    	cmp    %dh,0x35373734
     807:	38 30                	cmp    %dh,(%eax)
     809:	37                   	aaa    
     80a:	4c                   	dec    %esp
     80b:	4c                   	dec    %esp
     80c:	00 01                	add    %al,(%ecx)
     80e:	00 5f 5f             	add    %bl,0x5f(%edi)
     811:	49                   	dec    %ecx
     812:	4e                   	dec    %esi
     813:	54                   	push   %esp
     814:	4d                   	dec    %ebp
     815:	41                   	inc    %ecx
     816:	58                   	pop    %eax
     817:	5f                   	pop    %edi
     818:	43                   	inc    %ebx
     819:	28 63 29             	sub    %ah,0x29(%ebx)
     81c:	20 63 20             	and    %ah,0x20(%ebx)
     81f:	23 23                	and    (%ebx),%esp
     821:	20 4c 4c 00          	and    %cl,0x0(%esp,%ecx,2)
     825:	01 00                	add    %eax,(%eax)
     827:	5f                   	pop    %edi
     828:	5f                   	pop    %edi
     829:	55                   	push   %ebp
     82a:	49                   	dec    %ecx
     82b:	4e                   	dec    %esi
     82c:	54                   	push   %esp
     82d:	4d                   	dec    %ebp
     82e:	41                   	inc    %ecx
     82f:	58                   	pop    %eax
     830:	5f                   	pop    %edi
     831:	4d                   	dec    %ebp
     832:	41                   	inc    %ecx
     833:	58                   	pop    %eax
     834:	5f                   	pop    %edi
     835:	5f                   	pop    %edi
     836:	20 31                	and    %dh,(%ecx)
     838:	38 34 34             	cmp    %dh,(%esp,%esi,1)
     83b:	36                   	ss
     83c:	37                   	aaa    
     83d:	34 34                	xor    $0x34,%al
     83f:	30 37                	xor    %dh,(%edi)
     841:	33 37                	xor    (%edi),%esi
     843:	30 39                	xor    %bh,(%ecx)
     845:	35 35 31 36 31       	xor    $0x31363135,%eax
     84a:	35 55 4c 4c 00       	xor    $0x4c4c55,%eax
     84f:	01 00                	add    %eax,(%eax)
     851:	5f                   	pop    %edi
     852:	5f                   	pop    %edi
     853:	55                   	push   %ebp
     854:	49                   	dec    %ecx
     855:	4e                   	dec    %esi
     856:	54                   	push   %esp
     857:	4d                   	dec    %ebp
     858:	41                   	inc    %ecx
     859:	58                   	pop    %eax
     85a:	5f                   	pop    %edi
     85b:	43                   	inc    %ebx
     85c:	28 63 29             	sub    %ah,0x29(%ebx)
     85f:	20 63 20             	and    %ah,0x20(%ebx)
     862:	23 23                	and    (%ebx),%esp
     864:	20 55 4c             	and    %dl,0x4c(%ebp)
     867:	4c                   	dec    %esp
     868:	00 01                	add    %al,(%ecx)
     86a:	00 5f 5f             	add    %bl,0x5f(%edi)
     86d:	53                   	push   %ebx
     86e:	49                   	dec    %ecx
     86f:	47                   	inc    %edi
     870:	5f                   	pop    %edi
     871:	41                   	inc    %ecx
     872:	54                   	push   %esp
     873:	4f                   	dec    %edi
     874:	4d                   	dec    %ebp
     875:	49                   	dec    %ecx
     876:	43                   	inc    %ebx
     877:	5f                   	pop    %edi
     878:	4d                   	dec    %ebp
     879:	41                   	inc    %ecx
     87a:	58                   	pop    %eax
     87b:	5f                   	pop    %edi
     87c:	5f                   	pop    %edi
     87d:	20 32                	and    %dh,(%edx)
     87f:	31 34 37             	xor    %esi,(%edi,%esi,1)
     882:	34 38                	xor    $0x38,%al
     884:	33 36                	xor    (%esi),%esi
     886:	34 37                	xor    $0x37,%al
     888:	00 01                	add    %al,(%ecx)
     88a:	00 5f 5f             	add    %bl,0x5f(%edi)
     88d:	53                   	push   %ebx
     88e:	49                   	dec    %ecx
     88f:	47                   	inc    %edi
     890:	5f                   	pop    %edi
     891:	41                   	inc    %ecx
     892:	54                   	push   %esp
     893:	4f                   	dec    %edi
     894:	4d                   	dec    %ebp
     895:	49                   	dec    %ecx
     896:	43                   	inc    %ebx
     897:	5f                   	pop    %edi
     898:	4d                   	dec    %ebp
     899:	49                   	dec    %ecx
     89a:	4e                   	dec    %esi
     89b:	5f                   	pop    %edi
     89c:	5f                   	pop    %edi
     89d:	20 28                	and    %ch,(%eax)
     89f:	2d 5f 5f 53 49       	sub    $0x49535f5f,%eax
     8a4:	47                   	inc    %edi
     8a5:	5f                   	pop    %edi
     8a6:	41                   	inc    %ecx
     8a7:	54                   	push   %esp
     8a8:	4f                   	dec    %edi
     8a9:	4d                   	dec    %ebp
     8aa:	49                   	dec    %ecx
     8ab:	43                   	inc    %ebx
     8ac:	5f                   	pop    %edi
     8ad:	4d                   	dec    %ebp
     8ae:	41                   	inc    %ecx
     8af:	58                   	pop    %eax
     8b0:	5f                   	pop    %edi
     8b1:	5f                   	pop    %edi
     8b2:	20 2d 20 31 29 00    	and    %ch,0x293120
     8b8:	01 00                	add    %eax,(%eax)
     8ba:	5f                   	pop    %edi
     8bb:	5f                   	pop    %edi
     8bc:	49                   	dec    %ecx
     8bd:	4e                   	dec    %esi
     8be:	54                   	push   %esp
     8bf:	38 5f 4d             	cmp    %bl,0x4d(%edi)
     8c2:	41                   	inc    %ecx
     8c3:	58                   	pop    %eax
     8c4:	5f                   	pop    %edi
     8c5:	5f                   	pop    %edi
     8c6:	20 31                	and    %dh,(%ecx)
     8c8:	32 37                	xor    (%edi),%dh
     8ca:	00 01                	add    %al,(%ecx)
     8cc:	00 5f 5f             	add    %bl,0x5f(%edi)
     8cf:	49                   	dec    %ecx
     8d0:	4e                   	dec    %esi
     8d1:	54                   	push   %esp
     8d2:	31 36                	xor    %esi,(%esi)
     8d4:	5f                   	pop    %edi
     8d5:	4d                   	dec    %ebp
     8d6:	41                   	inc    %ecx
     8d7:	58                   	pop    %eax
     8d8:	5f                   	pop    %edi
     8d9:	5f                   	pop    %edi
     8da:	20 33                	and    %dh,(%ebx)
     8dc:	32 37                	xor    (%edi),%dh
     8de:	36                   	ss
     8df:	37                   	aaa    
     8e0:	00 01                	add    %al,(%ecx)
     8e2:	00 5f 5f             	add    %bl,0x5f(%edi)
     8e5:	49                   	dec    %ecx
     8e6:	4e                   	dec    %esi
     8e7:	54                   	push   %esp
     8e8:	33 32                	xor    (%edx),%esi
     8ea:	5f                   	pop    %edi
     8eb:	4d                   	dec    %ebp
     8ec:	41                   	inc    %ecx
     8ed:	58                   	pop    %eax
     8ee:	5f                   	pop    %edi
     8ef:	5f                   	pop    %edi
     8f0:	20 32                	and    %dh,(%edx)
     8f2:	31 34 37             	xor    %esi,(%edi,%esi,1)
     8f5:	34 38                	xor    $0x38,%al
     8f7:	33 36                	xor    (%esi),%esi
     8f9:	34 37                	xor    $0x37,%al
     8fb:	00 01                	add    %al,(%ecx)
     8fd:	00 5f 5f             	add    %bl,0x5f(%edi)
     900:	49                   	dec    %ecx
     901:	4e                   	dec    %esi
     902:	54                   	push   %esp
     903:	36                   	ss
     904:	34 5f                	xor    $0x5f,%al
     906:	4d                   	dec    %ebp
     907:	41                   	inc    %ecx
     908:	58                   	pop    %eax
     909:	5f                   	pop    %edi
     90a:	5f                   	pop    %edi
     90b:	20 39                	and    %bh,(%ecx)
     90d:	32 32                	xor    (%edx),%dh
     90f:	33 33                	xor    (%ebx),%esi
     911:	37                   	aaa    
     912:	32 30                	xor    (%eax),%dh
     914:	33 36                	xor    (%esi),%esi
     916:	38 35 34 37 37 35    	cmp    %dh,0x35373734
     91c:	38 30                	cmp    %dh,(%eax)
     91e:	37                   	aaa    
     91f:	4c                   	dec    %esp
     920:	4c                   	dec    %esp
     921:	00 01                	add    %al,(%ecx)
     923:	00 5f 5f             	add    %bl,0x5f(%edi)
     926:	55                   	push   %ebp
     927:	49                   	dec    %ecx
     928:	4e                   	dec    %esi
     929:	54                   	push   %esp
     92a:	38 5f 4d             	cmp    %bl,0x4d(%edi)
     92d:	41                   	inc    %ecx
     92e:	58                   	pop    %eax
     92f:	5f                   	pop    %edi
     930:	5f                   	pop    %edi
     931:	20 32                	and    %dh,(%edx)
     933:	35 35 00 01 00       	xor    $0x10035,%eax
     938:	5f                   	pop    %edi
     939:	5f                   	pop    %edi
     93a:	55                   	push   %ebp
     93b:	49                   	dec    %ecx
     93c:	4e                   	dec    %esi
     93d:	54                   	push   %esp
     93e:	31 36                	xor    %esi,(%esi)
     940:	5f                   	pop    %edi
     941:	4d                   	dec    %ebp
     942:	41                   	inc    %ecx
     943:	58                   	pop    %eax
     944:	5f                   	pop    %edi
     945:	5f                   	pop    %edi
     946:	20 36                	and    %dh,(%esi)
     948:	35 35 33 35 00       	xor    $0x353335,%eax
     94d:	01 00                	add    %eax,(%eax)
     94f:	5f                   	pop    %edi
     950:	5f                   	pop    %edi
     951:	55                   	push   %ebp
     952:	49                   	dec    %ecx
     953:	4e                   	dec    %esi
     954:	54                   	push   %esp
     955:	33 32                	xor    (%edx),%esi
     957:	5f                   	pop    %edi
     958:	4d                   	dec    %ebp
     959:	41                   	inc    %ecx
     95a:	58                   	pop    %eax
     95b:	5f                   	pop    %edi
     95c:	5f                   	pop    %edi
     95d:	20 34 32             	and    %dh,(%edx,%esi,1)
     960:	39 34 39             	cmp    %esi,(%ecx,%edi,1)
     963:	36                   	ss
     964:	37                   	aaa    
     965:	32 39                	xor    (%ecx),%bh
     967:	35 55 00 01 00       	xor    $0x10055,%eax
     96c:	5f                   	pop    %edi
     96d:	5f                   	pop    %edi
     96e:	55                   	push   %ebp
     96f:	49                   	dec    %ecx
     970:	4e                   	dec    %esi
     971:	54                   	push   %esp
     972:	36                   	ss
     973:	34 5f                	xor    $0x5f,%al
     975:	4d                   	dec    %ebp
     976:	41                   	inc    %ecx
     977:	58                   	pop    %eax
     978:	5f                   	pop    %edi
     979:	5f                   	pop    %edi
     97a:	20 31                	and    %dh,(%ecx)
     97c:	38 34 34             	cmp    %dh,(%esp,%esi,1)
     97f:	36                   	ss
     980:	37                   	aaa    
     981:	34 34                	xor    $0x34,%al
     983:	30 37                	xor    %dh,(%edi)
     985:	33 37                	xor    (%edi),%esi
     987:	30 39                	xor    %bh,(%ecx)
     989:	35 35 31 36 31       	xor    $0x31363135,%eax
     98e:	35 55 4c 4c 00       	xor    $0x4c4c55,%eax
     993:	01 00                	add    %eax,(%eax)
     995:	5f                   	pop    %edi
     996:	5f                   	pop    %edi
     997:	49                   	dec    %ecx
     998:	4e                   	dec    %esi
     999:	54                   	push   %esp
     99a:	5f                   	pop    %edi
     99b:	4c                   	dec    %esp
     99c:	45                   	inc    %ebp
     99d:	41                   	inc    %ecx
     99e:	53                   	push   %ebx
     99f:	54                   	push   %esp
     9a0:	38 5f 4d             	cmp    %bl,0x4d(%edi)
     9a3:	41                   	inc    %ecx
     9a4:	58                   	pop    %eax
     9a5:	5f                   	pop    %edi
     9a6:	5f                   	pop    %edi
     9a7:	20 31                	and    %dh,(%ecx)
     9a9:	32 37                	xor    (%edi),%dh
     9ab:	00 01                	add    %al,(%ecx)
     9ad:	00 5f 5f             	add    %bl,0x5f(%edi)
     9b0:	49                   	dec    %ecx
     9b1:	4e                   	dec    %esi
     9b2:	54                   	push   %esp
     9b3:	38 5f 43             	cmp    %bl,0x43(%edi)
     9b6:	28 63 29             	sub    %ah,0x29(%ebx)
     9b9:	20 63 00             	and    %ah,0x0(%ebx)
     9bc:	01 00                	add    %eax,(%eax)
     9be:	5f                   	pop    %edi
     9bf:	5f                   	pop    %edi
     9c0:	49                   	dec    %ecx
     9c1:	4e                   	dec    %esi
     9c2:	54                   	push   %esp
     9c3:	5f                   	pop    %edi
     9c4:	4c                   	dec    %esp
     9c5:	45                   	inc    %ebp
     9c6:	41                   	inc    %ecx
     9c7:	53                   	push   %ebx
     9c8:	54                   	push   %esp
     9c9:	31 36                	xor    %esi,(%esi)
     9cb:	5f                   	pop    %edi
     9cc:	4d                   	dec    %ebp
     9cd:	41                   	inc    %ecx
     9ce:	58                   	pop    %eax
     9cf:	5f                   	pop    %edi
     9d0:	5f                   	pop    %edi
     9d1:	20 33                	and    %dh,(%ebx)
     9d3:	32 37                	xor    (%edi),%dh
     9d5:	36                   	ss
     9d6:	37                   	aaa    
     9d7:	00 01                	add    %al,(%ecx)
     9d9:	00 5f 5f             	add    %bl,0x5f(%edi)
     9dc:	49                   	dec    %ecx
     9dd:	4e                   	dec    %esi
     9de:	54                   	push   %esp
     9df:	31 36                	xor    %esi,(%esi)
     9e1:	5f                   	pop    %edi
     9e2:	43                   	inc    %ebx
     9e3:	28 63 29             	sub    %ah,0x29(%ebx)
     9e6:	20 63 00             	and    %ah,0x0(%ebx)
     9e9:	01 00                	add    %eax,(%eax)
     9eb:	5f                   	pop    %edi
     9ec:	5f                   	pop    %edi
     9ed:	49                   	dec    %ecx
     9ee:	4e                   	dec    %esi
     9ef:	54                   	push   %esp
     9f0:	5f                   	pop    %edi
     9f1:	4c                   	dec    %esp
     9f2:	45                   	inc    %ebp
     9f3:	41                   	inc    %ecx
     9f4:	53                   	push   %ebx
     9f5:	54                   	push   %esp
     9f6:	33 32                	xor    (%edx),%esi
     9f8:	5f                   	pop    %edi
     9f9:	4d                   	dec    %ebp
     9fa:	41                   	inc    %ecx
     9fb:	58                   	pop    %eax
     9fc:	5f                   	pop    %edi
     9fd:	5f                   	pop    %edi
     9fe:	20 32                	and    %dh,(%edx)
     a00:	31 34 37             	xor    %esi,(%edi,%esi,1)
     a03:	34 38                	xor    $0x38,%al
     a05:	33 36                	xor    (%esi),%esi
     a07:	34 37                	xor    $0x37,%al
     a09:	00 01                	add    %al,(%ecx)
     a0b:	00 5f 5f             	add    %bl,0x5f(%edi)
     a0e:	49                   	dec    %ecx
     a0f:	4e                   	dec    %esi
     a10:	54                   	push   %esp
     a11:	33 32                	xor    (%edx),%esi
     a13:	5f                   	pop    %edi
     a14:	43                   	inc    %ebx
     a15:	28 63 29             	sub    %ah,0x29(%ebx)
     a18:	20 63 00             	and    %ah,0x0(%ebx)
     a1b:	01 00                	add    %eax,(%eax)
     a1d:	5f                   	pop    %edi
     a1e:	5f                   	pop    %edi
     a1f:	49                   	dec    %ecx
     a20:	4e                   	dec    %esi
     a21:	54                   	push   %esp
     a22:	5f                   	pop    %edi
     a23:	4c                   	dec    %esp
     a24:	45                   	inc    %ebp
     a25:	41                   	inc    %ecx
     a26:	53                   	push   %ebx
     a27:	54                   	push   %esp
     a28:	36                   	ss
     a29:	34 5f                	xor    $0x5f,%al
     a2b:	4d                   	dec    %ebp
     a2c:	41                   	inc    %ecx
     a2d:	58                   	pop    %eax
     a2e:	5f                   	pop    %edi
     a2f:	5f                   	pop    %edi
     a30:	20 39                	and    %bh,(%ecx)
     a32:	32 32                	xor    (%edx),%dh
     a34:	33 33                	xor    (%ebx),%esi
     a36:	37                   	aaa    
     a37:	32 30                	xor    (%eax),%dh
     a39:	33 36                	xor    (%esi),%esi
     a3b:	38 35 34 37 37 35    	cmp    %dh,0x35373734
     a41:	38 30                	cmp    %dh,(%eax)
     a43:	37                   	aaa    
     a44:	4c                   	dec    %esp
     a45:	4c                   	dec    %esp
     a46:	00 01                	add    %al,(%ecx)
     a48:	00 5f 5f             	add    %bl,0x5f(%edi)
     a4b:	49                   	dec    %ecx
     a4c:	4e                   	dec    %esi
     a4d:	54                   	push   %esp
     a4e:	36                   	ss
     a4f:	34 5f                	xor    $0x5f,%al
     a51:	43                   	inc    %ebx
     a52:	28 63 29             	sub    %ah,0x29(%ebx)
     a55:	20 63 20             	and    %ah,0x20(%ebx)
     a58:	23 23                	and    (%ebx),%esp
     a5a:	20 4c 4c 00          	and    %cl,0x0(%esp,%ecx,2)
     a5e:	01 00                	add    %eax,(%eax)
     a60:	5f                   	pop    %edi
     a61:	5f                   	pop    %edi
     a62:	55                   	push   %ebp
     a63:	49                   	dec    %ecx
     a64:	4e                   	dec    %esi
     a65:	54                   	push   %esp
     a66:	5f                   	pop    %edi
     a67:	4c                   	dec    %esp
     a68:	45                   	inc    %ebp
     a69:	41                   	inc    %ecx
     a6a:	53                   	push   %ebx
     a6b:	54                   	push   %esp
     a6c:	38 5f 4d             	cmp    %bl,0x4d(%edi)
     a6f:	41                   	inc    %ecx
     a70:	58                   	pop    %eax
     a71:	5f                   	pop    %edi
     a72:	5f                   	pop    %edi
     a73:	20 32                	and    %dh,(%edx)
     a75:	35 35 00 01 00       	xor    $0x10035,%eax
     a7a:	5f                   	pop    %edi
     a7b:	5f                   	pop    %edi
     a7c:	55                   	push   %ebp
     a7d:	49                   	dec    %ecx
     a7e:	4e                   	dec    %esi
     a7f:	54                   	push   %esp
     a80:	38 5f 43             	cmp    %bl,0x43(%edi)
     a83:	28 63 29             	sub    %ah,0x29(%ebx)
     a86:	20 63 00             	and    %ah,0x0(%ebx)
     a89:	01 00                	add    %eax,(%eax)
     a8b:	5f                   	pop    %edi
     a8c:	5f                   	pop    %edi
     a8d:	55                   	push   %ebp
     a8e:	49                   	dec    %ecx
     a8f:	4e                   	dec    %esi
     a90:	54                   	push   %esp
     a91:	5f                   	pop    %edi
     a92:	4c                   	dec    %esp
     a93:	45                   	inc    %ebp
     a94:	41                   	inc    %ecx
     a95:	53                   	push   %ebx
     a96:	54                   	push   %esp
     a97:	31 36                	xor    %esi,(%esi)
     a99:	5f                   	pop    %edi
     a9a:	4d                   	dec    %ebp
     a9b:	41                   	inc    %ecx
     a9c:	58                   	pop    %eax
     a9d:	5f                   	pop    %edi
     a9e:	5f                   	pop    %edi
     a9f:	20 36                	and    %dh,(%esi)
     aa1:	35 35 33 35 00       	xor    $0x353335,%eax
     aa6:	01 00                	add    %eax,(%eax)
     aa8:	5f                   	pop    %edi
     aa9:	5f                   	pop    %edi
     aaa:	55                   	push   %ebp
     aab:	49                   	dec    %ecx
     aac:	4e                   	dec    %esi
     aad:	54                   	push   %esp
     aae:	31 36                	xor    %esi,(%esi)
     ab0:	5f                   	pop    %edi
     ab1:	43                   	inc    %ebx
     ab2:	28 63 29             	sub    %ah,0x29(%ebx)
     ab5:	20 63 00             	and    %ah,0x0(%ebx)
     ab8:	01 00                	add    %eax,(%eax)
     aba:	5f                   	pop    %edi
     abb:	5f                   	pop    %edi
     abc:	55                   	push   %ebp
     abd:	49                   	dec    %ecx
     abe:	4e                   	dec    %esi
     abf:	54                   	push   %esp
     ac0:	5f                   	pop    %edi
     ac1:	4c                   	dec    %esp
     ac2:	45                   	inc    %ebp
     ac3:	41                   	inc    %ecx
     ac4:	53                   	push   %ebx
     ac5:	54                   	push   %esp
     ac6:	33 32                	xor    (%edx),%esi
     ac8:	5f                   	pop    %edi
     ac9:	4d                   	dec    %ebp
     aca:	41                   	inc    %ecx
     acb:	58                   	pop    %eax
     acc:	5f                   	pop    %edi
     acd:	5f                   	pop    %edi
     ace:	20 34 32             	and    %dh,(%edx,%esi,1)
     ad1:	39 34 39             	cmp    %esi,(%ecx,%edi,1)
     ad4:	36                   	ss
     ad5:	37                   	aaa    
     ad6:	32 39                	xor    (%ecx),%bh
     ad8:	35 55 00 01 00       	xor    $0x10055,%eax
     add:	5f                   	pop    %edi
     ade:	5f                   	pop    %edi
     adf:	55                   	push   %ebp
     ae0:	49                   	dec    %ecx
     ae1:	4e                   	dec    %esi
     ae2:	54                   	push   %esp
     ae3:	33 32                	xor    (%edx),%esi
     ae5:	5f                   	pop    %edi
     ae6:	43                   	inc    %ebx
     ae7:	28 63 29             	sub    %ah,0x29(%ebx)
     aea:	20 63 20             	and    %ah,0x20(%ebx)
     aed:	23 23                	and    (%ebx),%esp
     aef:	20 55 00             	and    %dl,0x0(%ebp)
     af2:	01 00                	add    %eax,(%eax)
     af4:	5f                   	pop    %edi
     af5:	5f                   	pop    %edi
     af6:	55                   	push   %ebp
     af7:	49                   	dec    %ecx
     af8:	4e                   	dec    %esi
     af9:	54                   	push   %esp
     afa:	5f                   	pop    %edi
     afb:	4c                   	dec    %esp
     afc:	45                   	inc    %ebp
     afd:	41                   	inc    %ecx
     afe:	53                   	push   %ebx
     aff:	54                   	push   %esp
     b00:	36                   	ss
     b01:	34 5f                	xor    $0x5f,%al
     b03:	4d                   	dec    %ebp
     b04:	41                   	inc    %ecx
     b05:	58                   	pop    %eax
     b06:	5f                   	pop    %edi
     b07:	5f                   	pop    %edi
     b08:	20 31                	and    %dh,(%ecx)
     b0a:	38 34 34             	cmp    %dh,(%esp,%esi,1)
     b0d:	36                   	ss
     b0e:	37                   	aaa    
     b0f:	34 34                	xor    $0x34,%al
     b11:	30 37                	xor    %dh,(%edi)
     b13:	33 37                	xor    (%edi),%esi
     b15:	30 39                	xor    %bh,(%ecx)
     b17:	35 35 31 36 31       	xor    $0x31363135,%eax
     b1c:	35 55 4c 4c 00       	xor    $0x4c4c55,%eax
     b21:	01 00                	add    %eax,(%eax)
     b23:	5f                   	pop    %edi
     b24:	5f                   	pop    %edi
     b25:	55                   	push   %ebp
     b26:	49                   	dec    %ecx
     b27:	4e                   	dec    %esi
     b28:	54                   	push   %esp
     b29:	36                   	ss
     b2a:	34 5f                	xor    $0x5f,%al
     b2c:	43                   	inc    %ebx
     b2d:	28 63 29             	sub    %ah,0x29(%ebx)
     b30:	20 63 20             	and    %ah,0x20(%ebx)
     b33:	23 23                	and    (%ebx),%esp
     b35:	20 55 4c             	and    %dl,0x4c(%ebp)
     b38:	4c                   	dec    %esp
     b39:	00 01                	add    %al,(%ecx)
     b3b:	00 5f 5f             	add    %bl,0x5f(%edi)
     b3e:	49                   	dec    %ecx
     b3f:	4e                   	dec    %esi
     b40:	54                   	push   %esp
     b41:	5f                   	pop    %edi
     b42:	46                   	inc    %esi
     b43:	41                   	inc    %ecx
     b44:	53                   	push   %ebx
     b45:	54                   	push   %esp
     b46:	38 5f 4d             	cmp    %bl,0x4d(%edi)
     b49:	41                   	inc    %ecx
     b4a:	58                   	pop    %eax
     b4b:	5f                   	pop    %edi
     b4c:	5f                   	pop    %edi
     b4d:	20 31                	and    %dh,(%ecx)
     b4f:	32 37                	xor    (%edi),%dh
     b51:	00 01                	add    %al,(%ecx)
     b53:	00 5f 5f             	add    %bl,0x5f(%edi)
     b56:	49                   	dec    %ecx
     b57:	4e                   	dec    %esi
     b58:	54                   	push   %esp
     b59:	5f                   	pop    %edi
     b5a:	46                   	inc    %esi
     b5b:	41                   	inc    %ecx
     b5c:	53                   	push   %ebx
     b5d:	54                   	push   %esp
     b5e:	31 36                	xor    %esi,(%esi)
     b60:	5f                   	pop    %edi
     b61:	4d                   	dec    %ebp
     b62:	41                   	inc    %ecx
     b63:	58                   	pop    %eax
     b64:	5f                   	pop    %edi
     b65:	5f                   	pop    %edi
     b66:	20 32                	and    %dh,(%edx)
     b68:	31 34 37             	xor    %esi,(%edi,%esi,1)
     b6b:	34 38                	xor    $0x38,%al
     b6d:	33 36                	xor    (%esi),%esi
     b6f:	34 37                	xor    $0x37,%al
     b71:	00 01                	add    %al,(%ecx)
     b73:	00 5f 5f             	add    %bl,0x5f(%edi)
     b76:	49                   	dec    %ecx
     b77:	4e                   	dec    %esi
     b78:	54                   	push   %esp
     b79:	5f                   	pop    %edi
     b7a:	46                   	inc    %esi
     b7b:	41                   	inc    %ecx
     b7c:	53                   	push   %ebx
     b7d:	54                   	push   %esp
     b7e:	33 32                	xor    (%edx),%esi
     b80:	5f                   	pop    %edi
     b81:	4d                   	dec    %ebp
     b82:	41                   	inc    %ecx
     b83:	58                   	pop    %eax
     b84:	5f                   	pop    %edi
     b85:	5f                   	pop    %edi
     b86:	20 32                	and    %dh,(%edx)
     b88:	31 34 37             	xor    %esi,(%edi,%esi,1)
     b8b:	34 38                	xor    $0x38,%al
     b8d:	33 36                	xor    (%esi),%esi
     b8f:	34 37                	xor    $0x37,%al
     b91:	00 01                	add    %al,(%ecx)
     b93:	00 5f 5f             	add    %bl,0x5f(%edi)
     b96:	49                   	dec    %ecx
     b97:	4e                   	dec    %esi
     b98:	54                   	push   %esp
     b99:	5f                   	pop    %edi
     b9a:	46                   	inc    %esi
     b9b:	41                   	inc    %ecx
     b9c:	53                   	push   %ebx
     b9d:	54                   	push   %esp
     b9e:	36                   	ss
     b9f:	34 5f                	xor    $0x5f,%al
     ba1:	4d                   	dec    %ebp
     ba2:	41                   	inc    %ecx
     ba3:	58                   	pop    %eax
     ba4:	5f                   	pop    %edi
     ba5:	5f                   	pop    %edi
     ba6:	20 39                	and    %bh,(%ecx)
     ba8:	32 32                	xor    (%edx),%dh
     baa:	33 33                	xor    (%ebx),%esi
     bac:	37                   	aaa    
     bad:	32 30                	xor    (%eax),%dh
     baf:	33 36                	xor    (%esi),%esi
     bb1:	38 35 34 37 37 35    	cmp    %dh,0x35373734
     bb7:	38 30                	cmp    %dh,(%eax)
     bb9:	37                   	aaa    
     bba:	4c                   	dec    %esp
     bbb:	4c                   	dec    %esp
     bbc:	00 01                	add    %al,(%ecx)
     bbe:	00 5f 5f             	add    %bl,0x5f(%edi)
     bc1:	55                   	push   %ebp
     bc2:	49                   	dec    %ecx
     bc3:	4e                   	dec    %esi
     bc4:	54                   	push   %esp
     bc5:	5f                   	pop    %edi
     bc6:	46                   	inc    %esi
     bc7:	41                   	inc    %ecx
     bc8:	53                   	push   %ebx
     bc9:	54                   	push   %esp
     bca:	38 5f 4d             	cmp    %bl,0x4d(%edi)
     bcd:	41                   	inc    %ecx
     bce:	58                   	pop    %eax
     bcf:	5f                   	pop    %edi
     bd0:	5f                   	pop    %edi
     bd1:	20 32                	and    %dh,(%edx)
     bd3:	35 35 00 01 00       	xor    $0x10035,%eax
     bd8:	5f                   	pop    %edi
     bd9:	5f                   	pop    %edi
     bda:	55                   	push   %ebp
     bdb:	49                   	dec    %ecx
     bdc:	4e                   	dec    %esi
     bdd:	54                   	push   %esp
     bde:	5f                   	pop    %edi
     bdf:	46                   	inc    %esi
     be0:	41                   	inc    %ecx
     be1:	53                   	push   %ebx
     be2:	54                   	push   %esp
     be3:	31 36                	xor    %esi,(%esi)
     be5:	5f                   	pop    %edi
     be6:	4d                   	dec    %ebp
     be7:	41                   	inc    %ecx
     be8:	58                   	pop    %eax
     be9:	5f                   	pop    %edi
     bea:	5f                   	pop    %edi
     beb:	20 34 32             	and    %dh,(%edx,%esi,1)
     bee:	39 34 39             	cmp    %esi,(%ecx,%edi,1)
     bf1:	36                   	ss
     bf2:	37                   	aaa    
     bf3:	32 39                	xor    (%ecx),%bh
     bf5:	35 55 00 01 00       	xor    $0x10055,%eax
     bfa:	5f                   	pop    %edi
     bfb:	5f                   	pop    %edi
     bfc:	55                   	push   %ebp
     bfd:	49                   	dec    %ecx
     bfe:	4e                   	dec    %esi
     bff:	54                   	push   %esp
     c00:	5f                   	pop    %edi
     c01:	46                   	inc    %esi
     c02:	41                   	inc    %ecx
     c03:	53                   	push   %ebx
     c04:	54                   	push   %esp
     c05:	33 32                	xor    (%edx),%esi
     c07:	5f                   	pop    %edi
     c08:	4d                   	dec    %ebp
     c09:	41                   	inc    %ecx
     c0a:	58                   	pop    %eax
     c0b:	5f                   	pop    %edi
     c0c:	5f                   	pop    %edi
     c0d:	20 34 32             	and    %dh,(%edx,%esi,1)
     c10:	39 34 39             	cmp    %esi,(%ecx,%edi,1)
     c13:	36                   	ss
     c14:	37                   	aaa    
     c15:	32 39                	xor    (%ecx),%bh
     c17:	35 55 00 01 00       	xor    $0x10055,%eax
     c1c:	5f                   	pop    %edi
     c1d:	5f                   	pop    %edi
     c1e:	55                   	push   %ebp
     c1f:	49                   	dec    %ecx
     c20:	4e                   	dec    %esi
     c21:	54                   	push   %esp
     c22:	5f                   	pop    %edi
     c23:	46                   	inc    %esi
     c24:	41                   	inc    %ecx
     c25:	53                   	push   %ebx
     c26:	54                   	push   %esp
     c27:	36                   	ss
     c28:	34 5f                	xor    $0x5f,%al
     c2a:	4d                   	dec    %ebp
     c2b:	41                   	inc    %ecx
     c2c:	58                   	pop    %eax
     c2d:	5f                   	pop    %edi
     c2e:	5f                   	pop    %edi
     c2f:	20 31                	and    %dh,(%ecx)
     c31:	38 34 34             	cmp    %dh,(%esp,%esi,1)
     c34:	36                   	ss
     c35:	37                   	aaa    
     c36:	34 34                	xor    $0x34,%al
     c38:	30 37                	xor    %dh,(%edi)
     c3a:	33 37                	xor    (%edi),%esi
     c3c:	30 39                	xor    %bh,(%ecx)
     c3e:	35 35 31 36 31       	xor    $0x31363135,%eax
     c43:	35 55 4c 4c 00       	xor    $0x4c4c55,%eax
     c48:	01 00                	add    %eax,(%eax)
     c4a:	5f                   	pop    %edi
     c4b:	5f                   	pop    %edi
     c4c:	49                   	dec    %ecx
     c4d:	4e                   	dec    %esi
     c4e:	54                   	push   %esp
     c4f:	50                   	push   %eax
     c50:	54                   	push   %esp
     c51:	52                   	push   %edx
     c52:	5f                   	pop    %edi
     c53:	4d                   	dec    %ebp
     c54:	41                   	inc    %ecx
     c55:	58                   	pop    %eax
     c56:	5f                   	pop    %edi
     c57:	5f                   	pop    %edi
     c58:	20 32                	and    %dh,(%edx)
     c5a:	31 34 37             	xor    %esi,(%edi,%esi,1)
     c5d:	34 38                	xor    $0x38,%al
     c5f:	33 36                	xor    (%esi),%esi
     c61:	34 37                	xor    $0x37,%al
     c63:	00 01                	add    %al,(%ecx)
     c65:	00 5f 5f             	add    %bl,0x5f(%edi)
     c68:	55                   	push   %ebp
     c69:	49                   	dec    %ecx
     c6a:	4e                   	dec    %esi
     c6b:	54                   	push   %esp
     c6c:	50                   	push   %eax
     c6d:	54                   	push   %esp
     c6e:	52                   	push   %edx
     c6f:	5f                   	pop    %edi
     c70:	4d                   	dec    %ebp
     c71:	41                   	inc    %ecx
     c72:	58                   	pop    %eax
     c73:	5f                   	pop    %edi
     c74:	5f                   	pop    %edi
     c75:	20 34 32             	and    %dh,(%edx,%esi,1)
     c78:	39 34 39             	cmp    %esi,(%ecx,%edi,1)
     c7b:	36                   	ss
     c7c:	37                   	aaa    
     c7d:	32 39                	xor    (%ecx),%bh
     c7f:	35 55 00 01 00       	xor    $0x10055,%eax
     c84:	5f                   	pop    %edi
     c85:	5f                   	pop    %edi
     c86:	46                   	inc    %esi
     c87:	4c                   	dec    %esp
     c88:	54                   	push   %esp
     c89:	5f                   	pop    %edi
     c8a:	45                   	inc    %ebp
     c8b:	56                   	push   %esi
     c8c:	41                   	inc    %ecx
     c8d:	4c                   	dec    %esp
     c8e:	5f                   	pop    %edi
     c8f:	4d                   	dec    %ebp
     c90:	45                   	inc    %ebp
     c91:	54                   	push   %esp
     c92:	48                   	dec    %eax
     c93:	4f                   	dec    %edi
     c94:	44                   	inc    %esp
     c95:	5f                   	pop    %edi
     c96:	5f                   	pop    %edi
     c97:	20 32                	and    %dh,(%edx)
     c99:	00 01                	add    %al,(%ecx)
     c9b:	00 5f 5f             	add    %bl,0x5f(%edi)
     c9e:	44                   	inc    %esp
     c9f:	45                   	inc    %ebp
     ca0:	43                   	inc    %ebx
     ca1:	5f                   	pop    %edi
     ca2:	45                   	inc    %ebp
     ca3:	56                   	push   %esi
     ca4:	41                   	inc    %ecx
     ca5:	4c                   	dec    %esp
     ca6:	5f                   	pop    %edi
     ca7:	4d                   	dec    %ebp
     ca8:	45                   	inc    %ebp
     ca9:	54                   	push   %esp
     caa:	48                   	dec    %eax
     cab:	4f                   	dec    %edi
     cac:	44                   	inc    %esp
     cad:	5f                   	pop    %edi
     cae:	5f                   	pop    %edi
     caf:	20 32                	and    %dh,(%edx)
     cb1:	00 01                	add    %al,(%ecx)
     cb3:	00 5f 5f             	add    %bl,0x5f(%edi)
     cb6:	46                   	inc    %esi
     cb7:	4c                   	dec    %esp
     cb8:	54                   	push   %esp
     cb9:	5f                   	pop    %edi
     cba:	52                   	push   %edx
     cbb:	41                   	inc    %ecx
     cbc:	44                   	inc    %esp
     cbd:	49                   	dec    %ecx
     cbe:	58                   	pop    %eax
     cbf:	5f                   	pop    %edi
     cc0:	5f                   	pop    %edi
     cc1:	20 32                	and    %dh,(%edx)
     cc3:	00 01                	add    %al,(%ecx)
     cc5:	00 5f 5f             	add    %bl,0x5f(%edi)
     cc8:	46                   	inc    %esi
     cc9:	4c                   	dec    %esp
     cca:	54                   	push   %esp
     ccb:	5f                   	pop    %edi
     ccc:	4d                   	dec    %ebp
     ccd:	41                   	inc    %ecx
     cce:	4e                   	dec    %esi
     ccf:	54                   	push   %esp
     cd0:	5f                   	pop    %edi
     cd1:	44                   	inc    %esp
     cd2:	49                   	dec    %ecx
     cd3:	47                   	inc    %edi
     cd4:	5f                   	pop    %edi
     cd5:	5f                   	pop    %edi
     cd6:	20 32                	and    %dh,(%edx)
     cd8:	34 00                	xor    $0x0,%al
     cda:	01 00                	add    %eax,(%eax)
     cdc:	5f                   	pop    %edi
     cdd:	5f                   	pop    %edi
     cde:	46                   	inc    %esi
     cdf:	4c                   	dec    %esp
     ce0:	54                   	push   %esp
     ce1:	5f                   	pop    %edi
     ce2:	44                   	inc    %esp
     ce3:	49                   	dec    %ecx
     ce4:	47                   	inc    %edi
     ce5:	5f                   	pop    %edi
     ce6:	5f                   	pop    %edi
     ce7:	20 36                	and    %dh,(%esi)
     ce9:	00 01                	add    %al,(%ecx)
     ceb:	00 5f 5f             	add    %bl,0x5f(%edi)
     cee:	46                   	inc    %esi
     cef:	4c                   	dec    %esp
     cf0:	54                   	push   %esp
     cf1:	5f                   	pop    %edi
     cf2:	4d                   	dec    %ebp
     cf3:	49                   	dec    %ecx
     cf4:	4e                   	dec    %esi
     cf5:	5f                   	pop    %edi
     cf6:	45                   	inc    %ebp
     cf7:	58                   	pop    %eax
     cf8:	50                   	push   %eax
     cf9:	5f                   	pop    %edi
     cfa:	5f                   	pop    %edi
     cfb:	20 28                	and    %ch,(%eax)
     cfd:	2d 31 32 35 29       	sub    $0x29353231,%eax
     d02:	00 01                	add    %al,(%ecx)
     d04:	00 5f 5f             	add    %bl,0x5f(%edi)
     d07:	46                   	inc    %esi
     d08:	4c                   	dec    %esp
     d09:	54                   	push   %esp
     d0a:	5f                   	pop    %edi
     d0b:	4d                   	dec    %ebp
     d0c:	49                   	dec    %ecx
     d0d:	4e                   	dec    %esi
     d0e:	5f                   	pop    %edi
     d0f:	31 30                	xor    %esi,(%eax)
     d11:	5f                   	pop    %edi
     d12:	45                   	inc    %ebp
     d13:	58                   	pop    %eax
     d14:	50                   	push   %eax
     d15:	5f                   	pop    %edi
     d16:	5f                   	pop    %edi
     d17:	20 28                	and    %ch,(%eax)
     d19:	2d 33 37 29 00       	sub    $0x293733,%eax
     d1e:	01 00                	add    %eax,(%eax)
     d20:	5f                   	pop    %edi
     d21:	5f                   	pop    %edi
     d22:	46                   	inc    %esi
     d23:	4c                   	dec    %esp
     d24:	54                   	push   %esp
     d25:	5f                   	pop    %edi
     d26:	4d                   	dec    %ebp
     d27:	41                   	inc    %ecx
     d28:	58                   	pop    %eax
     d29:	5f                   	pop    %edi
     d2a:	45                   	inc    %ebp
     d2b:	58                   	pop    %eax
     d2c:	50                   	push   %eax
     d2d:	5f                   	pop    %edi
     d2e:	5f                   	pop    %edi
     d2f:	20 31                	and    %dh,(%ecx)
     d31:	32 38                	xor    (%eax),%bh
     d33:	00 01                	add    %al,(%ecx)
     d35:	00 5f 5f             	add    %bl,0x5f(%edi)
     d38:	46                   	inc    %esi
     d39:	4c                   	dec    %esp
     d3a:	54                   	push   %esp
     d3b:	5f                   	pop    %edi
     d3c:	4d                   	dec    %ebp
     d3d:	41                   	inc    %ecx
     d3e:	58                   	pop    %eax
     d3f:	5f                   	pop    %edi
     d40:	31 30                	xor    %esi,(%eax)
     d42:	5f                   	pop    %edi
     d43:	45                   	inc    %ebp
     d44:	58                   	pop    %eax
     d45:	50                   	push   %eax
     d46:	5f                   	pop    %edi
     d47:	5f                   	pop    %edi
     d48:	20 33                	and    %dh,(%ebx)
     d4a:	38 00                	cmp    %al,(%eax)
     d4c:	01 00                	add    %eax,(%eax)
     d4e:	5f                   	pop    %edi
     d4f:	5f                   	pop    %edi
     d50:	46                   	inc    %esi
     d51:	4c                   	dec    %esp
     d52:	54                   	push   %esp
     d53:	5f                   	pop    %edi
     d54:	44                   	inc    %esp
     d55:	45                   	inc    %ebp
     d56:	43                   	inc    %ebx
     d57:	49                   	dec    %ecx
     d58:	4d                   	dec    %ebp
     d59:	41                   	inc    %ecx
     d5a:	4c                   	dec    %esp
     d5b:	5f                   	pop    %edi
     d5c:	44                   	inc    %esp
     d5d:	49                   	dec    %ecx
     d5e:	47                   	inc    %edi
     d5f:	5f                   	pop    %edi
     d60:	5f                   	pop    %edi
     d61:	20 39                	and    %bh,(%ecx)
     d63:	00 01                	add    %al,(%ecx)
     d65:	00 5f 5f             	add    %bl,0x5f(%edi)
     d68:	46                   	inc    %esi
     d69:	4c                   	dec    %esp
     d6a:	54                   	push   %esp
     d6b:	5f                   	pop    %edi
     d6c:	4d                   	dec    %ebp
     d6d:	41                   	inc    %ecx
     d6e:	58                   	pop    %eax
     d6f:	5f                   	pop    %edi
     d70:	5f                   	pop    %edi
     d71:	20 33                	and    %dh,(%ebx)
     d73:	2e                   	cs
     d74:	34 30                	xor    $0x30,%al
     d76:	32 38                	xor    (%eax),%bh
     d78:	32 33                	xor    (%ebx),%dh
     d7a:	34 36                	xor    $0x36,%al
     d7c:	36 33 38             	xor    %ss:(%eax),%edi
     d7f:	35 32 38 38 35       	xor    $0x35383832,%eax
     d84:	39 38                	cmp    %edi,(%eax)
     d86:	31 32                	xor    %esi,(%edx)
     d88:	65 2b 33             	sub    %gs:(%ebx),%esi
     d8b:	38 46 00             	cmp    %al,0x0(%esi)
     d8e:	01 00                	add    %eax,(%eax)
     d90:	5f                   	pop    %edi
     d91:	5f                   	pop    %edi
     d92:	46                   	inc    %esi
     d93:	4c                   	dec    %esp
     d94:	54                   	push   %esp
     d95:	5f                   	pop    %edi
     d96:	4d                   	dec    %ebp
     d97:	49                   	dec    %ecx
     d98:	4e                   	dec    %esi
     d99:	5f                   	pop    %edi
     d9a:	5f                   	pop    %edi
     d9b:	20 31                	and    %dh,(%ecx)
     d9d:	2e 31 37             	xor    %esi,%cs:(%edi)
     da0:	35 34 39 34 33       	xor    $0x33343934,%eax
     da5:	35 30 38 32 32       	xor    $0x32323830,%eax
     daa:	32 38                	xor    (%eax),%bh
     dac:	37                   	aaa    
     dad:	35 30 37 39 37       	xor    $0x37393730,%eax
     db2:	65                   	gs
     db3:	2d 33 38 46 00       	sub    $0x463833,%eax
     db8:	01 00                	add    %eax,(%eax)
     dba:	5f                   	pop    %edi
     dbb:	5f                   	pop    %edi
     dbc:	46                   	inc    %esi
     dbd:	4c                   	dec    %esp
     dbe:	54                   	push   %esp
     dbf:	5f                   	pop    %edi
     dc0:	45                   	inc    %ebp
     dc1:	50                   	push   %eax
     dc2:	53                   	push   %ebx
     dc3:	49                   	dec    %ecx
     dc4:	4c                   	dec    %esp
     dc5:	4f                   	dec    %edi
     dc6:	4e                   	dec    %esi
     dc7:	5f                   	pop    %edi
     dc8:	5f                   	pop    %edi
     dc9:	20 31                	and    %dh,(%ecx)
     dcb:	2e 31 39             	xor    %edi,%cs:(%ecx)
     dce:	32 30                	xor    (%eax),%dh
     dd0:	39 32                	cmp    %esi,(%edx)
     dd2:	38 39                	cmp    %bh,(%ecx)
     dd4:	35 35 30 37 38       	xor    $0x38373035,%eax
     dd9:	31 32                	xor    %esi,(%edx)
     ddb:	35 30 30 30 30       	xor    $0x30303030,%eax
     de0:	65                   	gs
     de1:	2d 37 46 00 01       	sub    $0x1004637,%eax
     de6:	00 5f 5f             	add    %bl,0x5f(%edi)
     de9:	46                   	inc    %esi
     dea:	4c                   	dec    %esp
     deb:	54                   	push   %esp
     dec:	5f                   	pop    %edi
     ded:	44                   	inc    %esp
     dee:	45                   	inc    %ebp
     def:	4e                   	dec    %esi
     df0:	4f                   	dec    %edi
     df1:	52                   	push   %edx
     df2:	4d                   	dec    %ebp
     df3:	5f                   	pop    %edi
     df4:	4d                   	dec    %ebp
     df5:	49                   	dec    %ecx
     df6:	4e                   	dec    %esi
     df7:	5f                   	pop    %edi
     df8:	5f                   	pop    %edi
     df9:	20 31                	and    %dh,(%ecx)
     dfb:	2e                   	cs
     dfc:	34 30                	xor    $0x30,%al
     dfe:	31 32                	xor    %esi,(%edx)
     e00:	39 38                	cmp    %edi,(%eax)
     e02:	34 36                	xor    $0x36,%al
     e04:	34 33                	xor    $0x33,%al
     e06:	32 34 38             	xor    (%eax,%edi,1),%dh
     e09:	31 37                	xor    %esi,(%edi)
     e0b:	30 37                	xor    %dh,(%edi)
     e0d:	30 39                	xor    %bh,(%ecx)
     e0f:	32 65 2d             	xor    0x2d(%ebp),%ah
     e12:	34 35                	xor    $0x35,%al
     e14:	46                   	inc    %esi
     e15:	00 01                	add    %al,(%ecx)
     e17:	00 5f 5f             	add    %bl,0x5f(%edi)
     e1a:	46                   	inc    %esi
     e1b:	4c                   	dec    %esp
     e1c:	54                   	push   %esp
     e1d:	5f                   	pop    %edi
     e1e:	48                   	dec    %eax
     e1f:	41                   	inc    %ecx
     e20:	53                   	push   %ebx
     e21:	5f                   	pop    %edi
     e22:	44                   	inc    %esp
     e23:	45                   	inc    %ebp
     e24:	4e                   	dec    %esi
     e25:	4f                   	dec    %edi
     e26:	52                   	push   %edx
     e27:	4d                   	dec    %ebp
     e28:	5f                   	pop    %edi
     e29:	5f                   	pop    %edi
     e2a:	20 31                	and    %dh,(%ecx)
     e2c:	00 01                	add    %al,(%ecx)
     e2e:	00 5f 5f             	add    %bl,0x5f(%edi)
     e31:	46                   	inc    %esi
     e32:	4c                   	dec    %esp
     e33:	54                   	push   %esp
     e34:	5f                   	pop    %edi
     e35:	48                   	dec    %eax
     e36:	41                   	inc    %ecx
     e37:	53                   	push   %ebx
     e38:	5f                   	pop    %edi
     e39:	49                   	dec    %ecx
     e3a:	4e                   	dec    %esi
     e3b:	46                   	inc    %esi
     e3c:	49                   	dec    %ecx
     e3d:	4e                   	dec    %esi
     e3e:	49                   	dec    %ecx
     e3f:	54                   	push   %esp
     e40:	59                   	pop    %ecx
     e41:	5f                   	pop    %edi
     e42:	5f                   	pop    %edi
     e43:	20 31                	and    %dh,(%ecx)
     e45:	00 01                	add    %al,(%ecx)
     e47:	00 5f 5f             	add    %bl,0x5f(%edi)
     e4a:	46                   	inc    %esi
     e4b:	4c                   	dec    %esp
     e4c:	54                   	push   %esp
     e4d:	5f                   	pop    %edi
     e4e:	48                   	dec    %eax
     e4f:	41                   	inc    %ecx
     e50:	53                   	push   %ebx
     e51:	5f                   	pop    %edi
     e52:	51                   	push   %ecx
     e53:	55                   	push   %ebp
     e54:	49                   	dec    %ecx
     e55:	45                   	inc    %ebp
     e56:	54                   	push   %esp
     e57:	5f                   	pop    %edi
     e58:	4e                   	dec    %esi
     e59:	41                   	inc    %ecx
     e5a:	4e                   	dec    %esi
     e5b:	5f                   	pop    %edi
     e5c:	5f                   	pop    %edi
     e5d:	20 31                	and    %dh,(%ecx)
     e5f:	00 01                	add    %al,(%ecx)
     e61:	00 5f 5f             	add    %bl,0x5f(%edi)
     e64:	44                   	inc    %esp
     e65:	42                   	inc    %edx
     e66:	4c                   	dec    %esp
     e67:	5f                   	pop    %edi
     e68:	4d                   	dec    %ebp
     e69:	41                   	inc    %ecx
     e6a:	4e                   	dec    %esi
     e6b:	54                   	push   %esp
     e6c:	5f                   	pop    %edi
     e6d:	44                   	inc    %esp
     e6e:	49                   	dec    %ecx
     e6f:	47                   	inc    %edi
     e70:	5f                   	pop    %edi
     e71:	5f                   	pop    %edi
     e72:	20 35 33 00 01 00    	and    %dh,0x10033
     e78:	5f                   	pop    %edi
     e79:	5f                   	pop    %edi
     e7a:	44                   	inc    %esp
     e7b:	42                   	inc    %edx
     e7c:	4c                   	dec    %esp
     e7d:	5f                   	pop    %edi
     e7e:	44                   	inc    %esp
     e7f:	49                   	dec    %ecx
     e80:	47                   	inc    %edi
     e81:	5f                   	pop    %edi
     e82:	5f                   	pop    %edi
     e83:	20 31                	and    %dh,(%ecx)
     e85:	35 00 01 00 5f       	xor    $0x5f000100,%eax
     e8a:	5f                   	pop    %edi
     e8b:	44                   	inc    %esp
     e8c:	42                   	inc    %edx
     e8d:	4c                   	dec    %esp
     e8e:	5f                   	pop    %edi
     e8f:	4d                   	dec    %ebp
     e90:	49                   	dec    %ecx
     e91:	4e                   	dec    %esi
     e92:	5f                   	pop    %edi
     e93:	45                   	inc    %ebp
     e94:	58                   	pop    %eax
     e95:	50                   	push   %eax
     e96:	5f                   	pop    %edi
     e97:	5f                   	pop    %edi
     e98:	20 28                	and    %ch,(%eax)
     e9a:	2d 31 30 32 31       	sub    $0x31323031,%eax
     e9f:	29 00                	sub    %eax,(%eax)
     ea1:	01 00                	add    %eax,(%eax)
     ea3:	5f                   	pop    %edi
     ea4:	5f                   	pop    %edi
     ea5:	44                   	inc    %esp
     ea6:	42                   	inc    %edx
     ea7:	4c                   	dec    %esp
     ea8:	5f                   	pop    %edi
     ea9:	4d                   	dec    %ebp
     eaa:	49                   	dec    %ecx
     eab:	4e                   	dec    %esi
     eac:	5f                   	pop    %edi
     ead:	31 30                	xor    %esi,(%eax)
     eaf:	5f                   	pop    %edi
     eb0:	45                   	inc    %ebp
     eb1:	58                   	pop    %eax
     eb2:	50                   	push   %eax
     eb3:	5f                   	pop    %edi
     eb4:	5f                   	pop    %edi
     eb5:	20 28                	and    %ch,(%eax)
     eb7:	2d 33 30 37 29       	sub    $0x29373033,%eax
     ebc:	00 01                	add    %al,(%ecx)
     ebe:	00 5f 5f             	add    %bl,0x5f(%edi)
     ec1:	44                   	inc    %esp
     ec2:	42                   	inc    %edx
     ec3:	4c                   	dec    %esp
     ec4:	5f                   	pop    %edi
     ec5:	4d                   	dec    %ebp
     ec6:	41                   	inc    %ecx
     ec7:	58                   	pop    %eax
     ec8:	5f                   	pop    %edi
     ec9:	45                   	inc    %ebp
     eca:	58                   	pop    %eax
     ecb:	50                   	push   %eax
     ecc:	5f                   	pop    %edi
     ecd:	5f                   	pop    %edi
     ece:	20 31                	and    %dh,(%ecx)
     ed0:	30 32                	xor    %dh,(%edx)
     ed2:	34 00                	xor    $0x0,%al
     ed4:	01 00                	add    %eax,(%eax)
     ed6:	5f                   	pop    %edi
     ed7:	5f                   	pop    %edi
     ed8:	44                   	inc    %esp
     ed9:	42                   	inc    %edx
     eda:	4c                   	dec    %esp
     edb:	5f                   	pop    %edi
     edc:	4d                   	dec    %ebp
     edd:	41                   	inc    %ecx
     ede:	58                   	pop    %eax
     edf:	5f                   	pop    %edi
     ee0:	31 30                	xor    %esi,(%eax)
     ee2:	5f                   	pop    %edi
     ee3:	45                   	inc    %ebp
     ee4:	58                   	pop    %eax
     ee5:	50                   	push   %eax
     ee6:	5f                   	pop    %edi
     ee7:	5f                   	pop    %edi
     ee8:	20 33                	and    %dh,(%ebx)
     eea:	30 38                	xor    %bh,(%eax)
     eec:	00 01                	add    %al,(%ecx)
     eee:	00 5f 5f             	add    %bl,0x5f(%edi)
     ef1:	44                   	inc    %esp
     ef2:	42                   	inc    %edx
     ef3:	4c                   	dec    %esp
     ef4:	5f                   	pop    %edi
     ef5:	44                   	inc    %esp
     ef6:	45                   	inc    %ebp
     ef7:	43                   	inc    %ebx
     ef8:	49                   	dec    %ecx
     ef9:	4d                   	dec    %ebp
     efa:	41                   	inc    %ecx
     efb:	4c                   	dec    %esp
     efc:	5f                   	pop    %edi
     efd:	44                   	inc    %esp
     efe:	49                   	dec    %ecx
     eff:	47                   	inc    %edi
     f00:	5f                   	pop    %edi
     f01:	5f                   	pop    %edi
     f02:	20 31                	and    %dh,(%ecx)
     f04:	37                   	aaa    
     f05:	00 01                	add    %al,(%ecx)
     f07:	00 5f 5f             	add    %bl,0x5f(%edi)
     f0a:	44                   	inc    %esp
     f0b:	42                   	inc    %edx
     f0c:	4c                   	dec    %esp
     f0d:	5f                   	pop    %edi
     f0e:	4d                   	dec    %ebp
     f0f:	41                   	inc    %ecx
     f10:	58                   	pop    %eax
     f11:	5f                   	pop    %edi
     f12:	5f                   	pop    %edi
     f13:	20 28                	and    %ch,(%eax)
     f15:	28 64 6f 75          	sub    %ah,0x75(%edi,%ebp,2)
     f19:	62 6c 65 29          	bound  %ebp,0x29(%ebp,%eiz,2)
     f1d:	31 2e                	xor    %ebp,(%esi)
     f1f:	37                   	aaa    
     f20:	39 37                	cmp    %esi,(%edi)
     f22:	36 39 33             	cmp    %esi,%ss:(%ebx)
     f25:	31 33                	xor    %esi,(%ebx)
     f27:	34 38                	xor    $0x38,%al
     f29:	36 32 33             	xor    %ss:(%ebx),%dh
     f2c:	31 35 37 30 38 31    	xor    %esi,0x31383037
     f32:	35 65 2b 33 30       	xor    $0x30332b65,%eax
     f37:	38 4c 29 00          	cmp    %cl,0x0(%ecx,%ebp,1)
     f3b:	01 00                	add    %eax,(%eax)
     f3d:	5f                   	pop    %edi
     f3e:	5f                   	pop    %edi
     f3f:	44                   	inc    %esp
     f40:	42                   	inc    %edx
     f41:	4c                   	dec    %esp
     f42:	5f                   	pop    %edi
     f43:	4d                   	dec    %ebp
     f44:	49                   	dec    %ecx
     f45:	4e                   	dec    %esi
     f46:	5f                   	pop    %edi
     f47:	5f                   	pop    %edi
     f48:	20 28                	and    %ch,(%eax)
     f4a:	28 64 6f 75          	sub    %ah,0x75(%edi,%ebp,2)
     f4e:	62 6c 65 29          	bound  %ebp,0x29(%ebp,%eiz,2)
     f52:	32 2e                	xor    (%esi),%ch
     f54:	32 32                	xor    (%edx),%dh
     f56:	35 30 37 33 38       	xor    $0x38333730,%eax
     f5b:	35 38 35 30 37       	xor    $0x37303538,%eax
     f60:	32 30                	xor    (%eax),%dh
     f62:	31 33                	xor    %esi,(%ebx)
     f64:	38 33                	cmp    %dh,(%ebx)
     f66:	30 39                	xor    %bh,(%ecx)
     f68:	65                   	gs
     f69:	2d 33 30 38 4c       	sub    $0x4c383033,%eax
     f6e:	29 00                	sub    %eax,(%eax)
     f70:	01 00                	add    %eax,(%eax)
     f72:	5f                   	pop    %edi
     f73:	5f                   	pop    %edi
     f74:	44                   	inc    %esp
     f75:	42                   	inc    %edx
     f76:	4c                   	dec    %esp
     f77:	5f                   	pop    %edi
     f78:	45                   	inc    %ebp
     f79:	50                   	push   %eax
     f7a:	53                   	push   %ebx
     f7b:	49                   	dec    %ecx
     f7c:	4c                   	dec    %esp
     f7d:	4f                   	dec    %edi
     f7e:	4e                   	dec    %esi
     f7f:	5f                   	pop    %edi
     f80:	5f                   	pop    %edi
     f81:	20 28                	and    %ch,(%eax)
     f83:	28 64 6f 75          	sub    %ah,0x75(%edi,%ebp,2)
     f87:	62 6c 65 29          	bound  %ebp,0x29(%ebp,%eiz,2)
     f8b:	32 2e                	xor    (%esi),%ch
     f8d:	32 32                	xor    (%edx),%dh
     f8f:	30 34 34             	xor    %dh,(%esp,%esi,1)
     f92:	36 30 34 39          	xor    %dh,%ss:(%ecx,%edi,1)
     f96:	32 35 30 33 31 33    	xor    0x33313330,%dh
     f9c:	30 38                	xor    %bh,(%eax)
     f9e:	30 38                	xor    %bh,(%eax)
     fa0:	35 65 2d 31 36       	xor    $0x36312d65,%eax
     fa5:	4c                   	dec    %esp
     fa6:	29 00                	sub    %eax,(%eax)
     fa8:	01 00                	add    %eax,(%eax)
     faa:	5f                   	pop    %edi
     fab:	5f                   	pop    %edi
     fac:	44                   	inc    %esp
     fad:	42                   	inc    %edx
     fae:	4c                   	dec    %esp
     faf:	5f                   	pop    %edi
     fb0:	44                   	inc    %esp
     fb1:	45                   	inc    %ebp
     fb2:	4e                   	dec    %esi
     fb3:	4f                   	dec    %edi
     fb4:	52                   	push   %edx
     fb5:	4d                   	dec    %ebp
     fb6:	5f                   	pop    %edi
     fb7:	4d                   	dec    %ebp
     fb8:	49                   	dec    %ecx
     fb9:	4e                   	dec    %esi
     fba:	5f                   	pop    %edi
     fbb:	5f                   	pop    %edi
     fbc:	20 28                	and    %ch,(%eax)
     fbe:	28 64 6f 75          	sub    %ah,0x75(%edi,%ebp,2)
     fc2:	62 6c 65 29          	bound  %ebp,0x29(%ebp,%eiz,2)
     fc6:	34 2e                	xor    $0x2e,%al
     fc8:	39 34 30             	cmp    %esi,(%eax,%esi,1)
     fcb:	36                   	ss
     fcc:	35 36 34 35 38       	xor    $0x38353436,%eax
     fd1:	34 31                	xor    $0x31,%al
     fd3:	32 34 36             	xor    (%esi,%esi,1),%dh
     fd6:	35 34 34 31 37       	xor    $0x37313434,%eax
     fdb:	37                   	aaa    
     fdc:	65                   	gs
     fdd:	2d 33 32 34 4c       	sub    $0x4c343233,%eax
     fe2:	29 00                	sub    %eax,(%eax)
     fe4:	01 00                	add    %eax,(%eax)
     fe6:	5f                   	pop    %edi
     fe7:	5f                   	pop    %edi
     fe8:	44                   	inc    %esp
     fe9:	42                   	inc    %edx
     fea:	4c                   	dec    %esp
     feb:	5f                   	pop    %edi
     fec:	48                   	dec    %eax
     fed:	41                   	inc    %ecx
     fee:	53                   	push   %ebx
     fef:	5f                   	pop    %edi
     ff0:	44                   	inc    %esp
     ff1:	45                   	inc    %ebp
     ff2:	4e                   	dec    %esi
     ff3:	4f                   	dec    %edi
     ff4:	52                   	push   %edx
     ff5:	4d                   	dec    %ebp
     ff6:	5f                   	pop    %edi
     ff7:	5f                   	pop    %edi
     ff8:	20 31                	and    %dh,(%ecx)
     ffa:	00 01                	add    %al,(%ecx)
     ffc:	00 5f 5f             	add    %bl,0x5f(%edi)
     fff:	44                   	inc    %esp
    1000:	42                   	inc    %edx
    1001:	4c                   	dec    %esp
    1002:	5f                   	pop    %edi
    1003:	48                   	dec    %eax
    1004:	41                   	inc    %ecx
    1005:	53                   	push   %ebx
    1006:	5f                   	pop    %edi
    1007:	49                   	dec    %ecx
    1008:	4e                   	dec    %esi
    1009:	46                   	inc    %esi
    100a:	49                   	dec    %ecx
    100b:	4e                   	dec    %esi
    100c:	49                   	dec    %ecx
    100d:	54                   	push   %esp
    100e:	59                   	pop    %ecx
    100f:	5f                   	pop    %edi
    1010:	5f                   	pop    %edi
    1011:	20 31                	and    %dh,(%ecx)
    1013:	00 01                	add    %al,(%ecx)
    1015:	00 5f 5f             	add    %bl,0x5f(%edi)
    1018:	44                   	inc    %esp
    1019:	42                   	inc    %edx
    101a:	4c                   	dec    %esp
    101b:	5f                   	pop    %edi
    101c:	48                   	dec    %eax
    101d:	41                   	inc    %ecx
    101e:	53                   	push   %ebx
    101f:	5f                   	pop    %edi
    1020:	51                   	push   %ecx
    1021:	55                   	push   %ebp
    1022:	49                   	dec    %ecx
    1023:	45                   	inc    %ebp
    1024:	54                   	push   %esp
    1025:	5f                   	pop    %edi
    1026:	4e                   	dec    %esi
    1027:	41                   	inc    %ecx
    1028:	4e                   	dec    %esi
    1029:	5f                   	pop    %edi
    102a:	5f                   	pop    %edi
    102b:	20 31                	and    %dh,(%ecx)
    102d:	00 01                	add    %al,(%ecx)
    102f:	00 5f 5f             	add    %bl,0x5f(%edi)
    1032:	4c                   	dec    %esp
    1033:	44                   	inc    %esp
    1034:	42                   	inc    %edx
    1035:	4c                   	dec    %esp
    1036:	5f                   	pop    %edi
    1037:	4d                   	dec    %ebp
    1038:	41                   	inc    %ecx
    1039:	4e                   	dec    %esi
    103a:	54                   	push   %esp
    103b:	5f                   	pop    %edi
    103c:	44                   	inc    %esp
    103d:	49                   	dec    %ecx
    103e:	47                   	inc    %edi
    103f:	5f                   	pop    %edi
    1040:	5f                   	pop    %edi
    1041:	20 36                	and    %dh,(%esi)
    1043:	34 00                	xor    $0x0,%al
    1045:	01 00                	add    %eax,(%eax)
    1047:	5f                   	pop    %edi
    1048:	5f                   	pop    %edi
    1049:	4c                   	dec    %esp
    104a:	44                   	inc    %esp
    104b:	42                   	inc    %edx
    104c:	4c                   	dec    %esp
    104d:	5f                   	pop    %edi
    104e:	44                   	inc    %esp
    104f:	49                   	dec    %ecx
    1050:	47                   	inc    %edi
    1051:	5f                   	pop    %edi
    1052:	5f                   	pop    %edi
    1053:	20 31                	and    %dh,(%ecx)
    1055:	38 00                	cmp    %al,(%eax)
    1057:	01 00                	add    %eax,(%eax)
    1059:	5f                   	pop    %edi
    105a:	5f                   	pop    %edi
    105b:	4c                   	dec    %esp
    105c:	44                   	inc    %esp
    105d:	42                   	inc    %edx
    105e:	4c                   	dec    %esp
    105f:	5f                   	pop    %edi
    1060:	4d                   	dec    %ebp
    1061:	49                   	dec    %ecx
    1062:	4e                   	dec    %esi
    1063:	5f                   	pop    %edi
    1064:	45                   	inc    %ebp
    1065:	58                   	pop    %eax
    1066:	50                   	push   %eax
    1067:	5f                   	pop    %edi
    1068:	5f                   	pop    %edi
    1069:	20 28                	and    %ch,(%eax)
    106b:	2d 31 36 33 38       	sub    $0x38333631,%eax
    1070:	31 29                	xor    %ebp,(%ecx)
    1072:	00 01                	add    %al,(%ecx)
    1074:	00 5f 5f             	add    %bl,0x5f(%edi)
    1077:	4c                   	dec    %esp
    1078:	44                   	inc    %esp
    1079:	42                   	inc    %edx
    107a:	4c                   	dec    %esp
    107b:	5f                   	pop    %edi
    107c:	4d                   	dec    %ebp
    107d:	49                   	dec    %ecx
    107e:	4e                   	dec    %esi
    107f:	5f                   	pop    %edi
    1080:	31 30                	xor    %esi,(%eax)
    1082:	5f                   	pop    %edi
    1083:	45                   	inc    %ebp
    1084:	58                   	pop    %eax
    1085:	50                   	push   %eax
    1086:	5f                   	pop    %edi
    1087:	5f                   	pop    %edi
    1088:	20 28                	and    %ch,(%eax)
    108a:	2d 34 39 33 31       	sub    $0x31333934,%eax
    108f:	29 00                	sub    %eax,(%eax)
    1091:	01 00                	add    %eax,(%eax)
    1093:	5f                   	pop    %edi
    1094:	5f                   	pop    %edi
    1095:	4c                   	dec    %esp
    1096:	44                   	inc    %esp
    1097:	42                   	inc    %edx
    1098:	4c                   	dec    %esp
    1099:	5f                   	pop    %edi
    109a:	4d                   	dec    %ebp
    109b:	41                   	inc    %ecx
    109c:	58                   	pop    %eax
    109d:	5f                   	pop    %edi
    109e:	45                   	inc    %ebp
    109f:	58                   	pop    %eax
    10a0:	50                   	push   %eax
    10a1:	5f                   	pop    %edi
    10a2:	5f                   	pop    %edi
    10a3:	20 31                	and    %dh,(%ecx)
    10a5:	36 33 38             	xor    %ss:(%eax),%edi
    10a8:	34 00                	xor    $0x0,%al
    10aa:	01 00                	add    %eax,(%eax)
    10ac:	5f                   	pop    %edi
    10ad:	5f                   	pop    %edi
    10ae:	4c                   	dec    %esp
    10af:	44                   	inc    %esp
    10b0:	42                   	inc    %edx
    10b1:	4c                   	dec    %esp
    10b2:	5f                   	pop    %edi
    10b3:	4d                   	dec    %ebp
    10b4:	41                   	inc    %ecx
    10b5:	58                   	pop    %eax
    10b6:	5f                   	pop    %edi
    10b7:	31 30                	xor    %esi,(%eax)
    10b9:	5f                   	pop    %edi
    10ba:	45                   	inc    %ebp
    10bb:	58                   	pop    %eax
    10bc:	50                   	push   %eax
    10bd:	5f                   	pop    %edi
    10be:	5f                   	pop    %edi
    10bf:	20 34 39             	and    %dh,(%ecx,%edi,1)
    10c2:	33 32                	xor    (%edx),%esi
    10c4:	00 01                	add    %al,(%ecx)
    10c6:	00 5f 5f             	add    %bl,0x5f(%edi)
    10c9:	44                   	inc    %esp
    10ca:	45                   	inc    %ebp
    10cb:	43                   	inc    %ebx
    10cc:	49                   	dec    %ecx
    10cd:	4d                   	dec    %ebp
    10ce:	41                   	inc    %ecx
    10cf:	4c                   	dec    %esp
    10d0:	5f                   	pop    %edi
    10d1:	44                   	inc    %esp
    10d2:	49                   	dec    %ecx
    10d3:	47                   	inc    %edi
    10d4:	5f                   	pop    %edi
    10d5:	5f                   	pop    %edi
    10d6:	20 32                	and    %dh,(%edx)
    10d8:	31 00                	xor    %eax,(%eax)
    10da:	01 00                	add    %eax,(%eax)
    10dc:	5f                   	pop    %edi
    10dd:	5f                   	pop    %edi
    10de:	4c                   	dec    %esp
    10df:	44                   	inc    %esp
    10e0:	42                   	inc    %edx
    10e1:	4c                   	dec    %esp
    10e2:	5f                   	pop    %edi
    10e3:	4d                   	dec    %ebp
    10e4:	41                   	inc    %ecx
    10e5:	58                   	pop    %eax
    10e6:	5f                   	pop    %edi
    10e7:	5f                   	pop    %edi
    10e8:	20 31                	and    %dh,(%ecx)
    10ea:	2e 31 38             	xor    %edi,%cs:(%eax)
    10ed:	39 37                	cmp    %esi,(%edi)
    10ef:	33 31                	xor    (%ecx),%esi
    10f1:	34 39                	xor    $0x39,%al
    10f3:	35 33 35 37 32       	xor    $0x32373533,%eax
    10f8:	33 31                	xor    (%ecx),%esi
    10fa:	37                   	aaa    
    10fb:	36                   	ss
    10fc:	35 30 32 65 2b       	xor    $0x2b653230,%eax
    1101:	34 39                	xor    $0x39,%al
    1103:	33 32                	xor    (%edx),%esi
    1105:	4c                   	dec    %esp
    1106:	00 01                	add    %al,(%ecx)
    1108:	00 5f 5f             	add    %bl,0x5f(%edi)
    110b:	4c                   	dec    %esp
    110c:	44                   	inc    %esp
    110d:	42                   	inc    %edx
    110e:	4c                   	dec    %esp
    110f:	5f                   	pop    %edi
    1110:	4d                   	dec    %ebp
    1111:	49                   	dec    %ecx
    1112:	4e                   	dec    %esi
    1113:	5f                   	pop    %edi
    1114:	5f                   	pop    %edi
    1115:	20 33                	and    %dh,(%ebx)
    1117:	2e 33 36             	xor    %cs:(%esi),%esi
    111a:	32 31                	xor    (%ecx),%dh
    111c:	30 33                	xor    %dh,(%ebx)
    111e:	31 34 33             	xor    %esi,(%ebx,%esi,1)
    1121:	31 31                	xor    %esi,(%ecx)
    1123:	32 30                	xor    (%eax),%dh
    1125:	39 33                	cmp    %esi,(%ebx)
    1127:	35 30 36 32 36       	xor    $0x36323630,%eax
    112c:	65                   	gs
    112d:	2d 34 39 33 32       	sub    $0x32333934,%eax
    1132:	4c                   	dec    %esp
    1133:	00 01                	add    %al,(%ecx)
    1135:	00 5f 5f             	add    %bl,0x5f(%edi)
    1138:	4c                   	dec    %esp
    1139:	44                   	inc    %esp
    113a:	42                   	inc    %edx
    113b:	4c                   	dec    %esp
    113c:	5f                   	pop    %edi
    113d:	45                   	inc    %ebp
    113e:	50                   	push   %eax
    113f:	53                   	push   %ebx
    1140:	49                   	dec    %ecx
    1141:	4c                   	dec    %esp
    1142:	4f                   	dec    %edi
    1143:	4e                   	dec    %esi
    1144:	5f                   	pop    %edi
    1145:	5f                   	pop    %edi
    1146:	20 31                	and    %dh,(%ecx)
    1148:	2e 30 38             	xor    %bh,%cs:(%eax)
    114b:	34 32                	xor    $0x32,%al
    114d:	30 32                	xor    %dh,(%edx)
    114f:	31 37                	xor    %esi,(%edi)
    1151:	32 34 38             	xor    (%eax,%edi,1),%dh
    1154:	35 35 30 34 34       	xor    $0x34343035,%eax
    1159:	33 34 30             	xor    (%eax,%esi,1),%esi
    115c:	31 65 2d             	xor    %esp,0x2d(%ebp)
    115f:	31 39                	xor    %edi,(%ecx)
    1161:	4c                   	dec    %esp
    1162:	00 01                	add    %al,(%ecx)
    1164:	00 5f 5f             	add    %bl,0x5f(%edi)
    1167:	4c                   	dec    %esp
    1168:	44                   	inc    %esp
    1169:	42                   	inc    %edx
    116a:	4c                   	dec    %esp
    116b:	5f                   	pop    %edi
    116c:	44                   	inc    %esp
    116d:	45                   	inc    %ebp
    116e:	4e                   	dec    %esi
    116f:	4f                   	dec    %edi
    1170:	52                   	push   %edx
    1171:	4d                   	dec    %ebp
    1172:	5f                   	pop    %edi
    1173:	4d                   	dec    %ebp
    1174:	49                   	dec    %ecx
    1175:	4e                   	dec    %esi
    1176:	5f                   	pop    %edi
    1177:	5f                   	pop    %edi
    1178:	20 33                	and    %dh,(%ebx)
    117a:	2e                   	cs
    117b:	36                   	ss
    117c:	34 35                	xor    $0x35,%al
    117e:	31 39                	xor    %edi,(%ecx)
    1180:	39 35 33 31 38 38    	cmp    %esi,0x38383133
    1186:	32 34 37             	xor    (%edi,%esi,1),%dh
    1189:	34 36                	xor    $0x36,%al
    118b:	30 32                	xor    %dh,(%edx)
    118d:	35 33 65 2d 34       	xor    $0x342d6533,%eax
    1192:	39 35 31 4c 00 01    	cmp    %esi,0x1004c31
    1198:	00 5f 5f             	add    %bl,0x5f(%edi)
    119b:	4c                   	dec    %esp
    119c:	44                   	inc    %esp
    119d:	42                   	inc    %edx
    119e:	4c                   	dec    %esp
    119f:	5f                   	pop    %edi
    11a0:	48                   	dec    %eax
    11a1:	41                   	inc    %ecx
    11a2:	53                   	push   %ebx
    11a3:	5f                   	pop    %edi
    11a4:	44                   	inc    %esp
    11a5:	45                   	inc    %ebp
    11a6:	4e                   	dec    %esi
    11a7:	4f                   	dec    %edi
    11a8:	52                   	push   %edx
    11a9:	4d                   	dec    %ebp
    11aa:	5f                   	pop    %edi
    11ab:	5f                   	pop    %edi
    11ac:	20 31                	and    %dh,(%ecx)
    11ae:	00 01                	add    %al,(%ecx)
    11b0:	00 5f 5f             	add    %bl,0x5f(%edi)
    11b3:	4c                   	dec    %esp
    11b4:	44                   	inc    %esp
    11b5:	42                   	inc    %edx
    11b6:	4c                   	dec    %esp
    11b7:	5f                   	pop    %edi
    11b8:	48                   	dec    %eax
    11b9:	41                   	inc    %ecx
    11ba:	53                   	push   %ebx
    11bb:	5f                   	pop    %edi
    11bc:	49                   	dec    %ecx
    11bd:	4e                   	dec    %esi
    11be:	46                   	inc    %esi
    11bf:	49                   	dec    %ecx
    11c0:	4e                   	dec    %esi
    11c1:	49                   	dec    %ecx
    11c2:	54                   	push   %esp
    11c3:	59                   	pop    %ecx
    11c4:	5f                   	pop    %edi
    11c5:	5f                   	pop    %edi
    11c6:	20 31                	and    %dh,(%ecx)
    11c8:	00 01                	add    %al,(%ecx)
    11ca:	00 5f 5f             	add    %bl,0x5f(%edi)
    11cd:	4c                   	dec    %esp
    11ce:	44                   	inc    %esp
    11cf:	42                   	inc    %edx
    11d0:	4c                   	dec    %esp
    11d1:	5f                   	pop    %edi
    11d2:	48                   	dec    %eax
    11d3:	41                   	inc    %ecx
    11d4:	53                   	push   %ebx
    11d5:	5f                   	pop    %edi
    11d6:	51                   	push   %ecx
    11d7:	55                   	push   %ebp
    11d8:	49                   	dec    %ecx
    11d9:	45                   	inc    %ebp
    11da:	54                   	push   %esp
    11db:	5f                   	pop    %edi
    11dc:	4e                   	dec    %esi
    11dd:	41                   	inc    %ecx
    11de:	4e                   	dec    %esi
    11df:	5f                   	pop    %edi
    11e0:	5f                   	pop    %edi
    11e1:	20 31                	and    %dh,(%ecx)
    11e3:	00 01                	add    %al,(%ecx)
    11e5:	00 5f 5f             	add    %bl,0x5f(%edi)
    11e8:	44                   	inc    %esp
    11e9:	45                   	inc    %ebp
    11ea:	43                   	inc    %ebx
    11eb:	33 32                	xor    (%edx),%esi
    11ed:	5f                   	pop    %edi
    11ee:	4d                   	dec    %ebp
    11ef:	41                   	inc    %ecx
    11f0:	4e                   	dec    %esi
    11f1:	54                   	push   %esp
    11f2:	5f                   	pop    %edi
    11f3:	44                   	inc    %esp
    11f4:	49                   	dec    %ecx
    11f5:	47                   	inc    %edi
    11f6:	5f                   	pop    %edi
    11f7:	5f                   	pop    %edi
    11f8:	20 37                	and    %dh,(%edi)
    11fa:	00 01                	add    %al,(%ecx)
    11fc:	00 5f 5f             	add    %bl,0x5f(%edi)
    11ff:	44                   	inc    %esp
    1200:	45                   	inc    %ebp
    1201:	43                   	inc    %ebx
    1202:	33 32                	xor    (%edx),%esi
    1204:	5f                   	pop    %edi
    1205:	4d                   	dec    %ebp
    1206:	49                   	dec    %ecx
    1207:	4e                   	dec    %esi
    1208:	5f                   	pop    %edi
    1209:	45                   	inc    %ebp
    120a:	58                   	pop    %eax
    120b:	50                   	push   %eax
    120c:	5f                   	pop    %edi
    120d:	5f                   	pop    %edi
    120e:	20 28                	and    %ch,(%eax)
    1210:	2d 39 34 29 00       	sub    $0x293439,%eax
    1215:	01 00                	add    %eax,(%eax)
    1217:	5f                   	pop    %edi
    1218:	5f                   	pop    %edi
    1219:	44                   	inc    %esp
    121a:	45                   	inc    %ebp
    121b:	43                   	inc    %ebx
    121c:	33 32                	xor    (%edx),%esi
    121e:	5f                   	pop    %edi
    121f:	4d                   	dec    %ebp
    1220:	41                   	inc    %ecx
    1221:	58                   	pop    %eax
    1222:	5f                   	pop    %edi
    1223:	45                   	inc    %ebp
    1224:	58                   	pop    %eax
    1225:	50                   	push   %eax
    1226:	5f                   	pop    %edi
    1227:	5f                   	pop    %edi
    1228:	20 39                	and    %bh,(%ecx)
    122a:	37                   	aaa    
    122b:	00 01                	add    %al,(%ecx)
    122d:	00 5f 5f             	add    %bl,0x5f(%edi)
    1230:	44                   	inc    %esp
    1231:	45                   	inc    %ebp
    1232:	43                   	inc    %ebx
    1233:	33 32                	xor    (%edx),%esi
    1235:	5f                   	pop    %edi
    1236:	4d                   	dec    %ebp
    1237:	49                   	dec    %ecx
    1238:	4e                   	dec    %esi
    1239:	5f                   	pop    %edi
    123a:	5f                   	pop    %edi
    123b:	20 31                	and    %dh,(%ecx)
    123d:	45                   	inc    %ebp
    123e:	2d 39 35 44 46       	sub    $0x46443539,%eax
    1243:	00 01                	add    %al,(%ecx)
    1245:	00 5f 5f             	add    %bl,0x5f(%edi)
    1248:	44                   	inc    %esp
    1249:	45                   	inc    %ebp
    124a:	43                   	inc    %ebx
    124b:	33 32                	xor    (%edx),%esi
    124d:	5f                   	pop    %edi
    124e:	4d                   	dec    %ebp
    124f:	41                   	inc    %ecx
    1250:	58                   	pop    %eax
    1251:	5f                   	pop    %edi
    1252:	5f                   	pop    %edi
    1253:	20 39                	and    %bh,(%ecx)
    1255:	2e 39 39             	cmp    %edi,%cs:(%ecx)
    1258:	39 39                	cmp    %edi,(%ecx)
    125a:	39 39                	cmp    %edi,(%ecx)
    125c:	45                   	inc    %ebp
    125d:	39 36                	cmp    %esi,(%esi)
    125f:	44                   	inc    %esp
    1260:	46                   	inc    %esi
    1261:	00 01                	add    %al,(%ecx)
    1263:	00 5f 5f             	add    %bl,0x5f(%edi)
    1266:	44                   	inc    %esp
    1267:	45                   	inc    %ebp
    1268:	43                   	inc    %ebx
    1269:	33 32                	xor    (%edx),%esi
    126b:	5f                   	pop    %edi
    126c:	45                   	inc    %ebp
    126d:	50                   	push   %eax
    126e:	53                   	push   %ebx
    126f:	49                   	dec    %ecx
    1270:	4c                   	dec    %esp
    1271:	4f                   	dec    %edi
    1272:	4e                   	dec    %esi
    1273:	5f                   	pop    %edi
    1274:	5f                   	pop    %edi
    1275:	20 31                	and    %dh,(%ecx)
    1277:	45                   	inc    %ebp
    1278:	2d 36 44 46 00       	sub    $0x464436,%eax
    127d:	01 00                	add    %eax,(%eax)
    127f:	5f                   	pop    %edi
    1280:	5f                   	pop    %edi
    1281:	44                   	inc    %esp
    1282:	45                   	inc    %ebp
    1283:	43                   	inc    %ebx
    1284:	33 32                	xor    (%edx),%esi
    1286:	5f                   	pop    %edi
    1287:	53                   	push   %ebx
    1288:	55                   	push   %ebp
    1289:	42                   	inc    %edx
    128a:	4e                   	dec    %esi
    128b:	4f                   	dec    %edi
    128c:	52                   	push   %edx
    128d:	4d                   	dec    %ebp
    128e:	41                   	inc    %ecx
    128f:	4c                   	dec    %esp
    1290:	5f                   	pop    %edi
    1291:	4d                   	dec    %ebp
    1292:	49                   	dec    %ecx
    1293:	4e                   	dec    %esi
    1294:	5f                   	pop    %edi
    1295:	5f                   	pop    %edi
    1296:	20 30                	and    %dh,(%eax)
    1298:	2e 30 30             	xor    %dh,%cs:(%eax)
    129b:	30 30                	xor    %dh,(%eax)
    129d:	30 31                	xor    %dh,(%ecx)
    129f:	45                   	inc    %ebp
    12a0:	2d 39 35 44 46       	sub    $0x46443539,%eax
    12a5:	00 01                	add    %al,(%ecx)
    12a7:	00 5f 5f             	add    %bl,0x5f(%edi)
    12aa:	44                   	inc    %esp
    12ab:	45                   	inc    %ebp
    12ac:	43                   	inc    %ebx
    12ad:	36                   	ss
    12ae:	34 5f                	xor    $0x5f,%al
    12b0:	4d                   	dec    %ebp
    12b1:	41                   	inc    %ecx
    12b2:	4e                   	dec    %esi
    12b3:	54                   	push   %esp
    12b4:	5f                   	pop    %edi
    12b5:	44                   	inc    %esp
    12b6:	49                   	dec    %ecx
    12b7:	47                   	inc    %edi
    12b8:	5f                   	pop    %edi
    12b9:	5f                   	pop    %edi
    12ba:	20 31                	and    %dh,(%ecx)
    12bc:	36 00 01             	add    %al,%ss:(%ecx)
    12bf:	00 5f 5f             	add    %bl,0x5f(%edi)
    12c2:	44                   	inc    %esp
    12c3:	45                   	inc    %ebp
    12c4:	43                   	inc    %ebx
    12c5:	36                   	ss
    12c6:	34 5f                	xor    $0x5f,%al
    12c8:	4d                   	dec    %ebp
    12c9:	49                   	dec    %ecx
    12ca:	4e                   	dec    %esi
    12cb:	5f                   	pop    %edi
    12cc:	45                   	inc    %ebp
    12cd:	58                   	pop    %eax
    12ce:	50                   	push   %eax
    12cf:	5f                   	pop    %edi
    12d0:	5f                   	pop    %edi
    12d1:	20 28                	and    %ch,(%eax)
    12d3:	2d 33 38 32 29       	sub    $0x29323833,%eax
    12d8:	00 01                	add    %al,(%ecx)
    12da:	00 5f 5f             	add    %bl,0x5f(%edi)
    12dd:	44                   	inc    %esp
    12de:	45                   	inc    %ebp
    12df:	43                   	inc    %ebx
    12e0:	36                   	ss
    12e1:	34 5f                	xor    $0x5f,%al
    12e3:	4d                   	dec    %ebp
    12e4:	41                   	inc    %ecx
    12e5:	58                   	pop    %eax
    12e6:	5f                   	pop    %edi
    12e7:	45                   	inc    %ebp
    12e8:	58                   	pop    %eax
    12e9:	50                   	push   %eax
    12ea:	5f                   	pop    %edi
    12eb:	5f                   	pop    %edi
    12ec:	20 33                	and    %dh,(%ebx)
    12ee:	38 35 00 01 00 5f    	cmp    %dh,0x5f000100
    12f4:	5f                   	pop    %edi
    12f5:	44                   	inc    %esp
    12f6:	45                   	inc    %ebp
    12f7:	43                   	inc    %ebx
    12f8:	36                   	ss
    12f9:	34 5f                	xor    $0x5f,%al
    12fb:	4d                   	dec    %ebp
    12fc:	49                   	dec    %ecx
    12fd:	4e                   	dec    %esi
    12fe:	5f                   	pop    %edi
    12ff:	5f                   	pop    %edi
    1300:	20 31                	and    %dh,(%ecx)
    1302:	45                   	inc    %ebp
    1303:	2d 33 38 33 44       	sub    $0x44333833,%eax
    1308:	44                   	inc    %esp
    1309:	00 01                	add    %al,(%ecx)
    130b:	00 5f 5f             	add    %bl,0x5f(%edi)
    130e:	44                   	inc    %esp
    130f:	45                   	inc    %ebp
    1310:	43                   	inc    %ebx
    1311:	36                   	ss
    1312:	34 5f                	xor    $0x5f,%al
    1314:	4d                   	dec    %ebp
    1315:	41                   	inc    %ecx
    1316:	58                   	pop    %eax
    1317:	5f                   	pop    %edi
    1318:	5f                   	pop    %edi
    1319:	20 39                	and    %bh,(%ecx)
    131b:	2e 39 39             	cmp    %edi,%cs:(%ecx)
    131e:	39 39                	cmp    %edi,(%ecx)
    1320:	39 39                	cmp    %edi,(%ecx)
    1322:	39 39                	cmp    %edi,(%ecx)
    1324:	39 39                	cmp    %edi,(%ecx)
    1326:	39 39                	cmp    %edi,(%ecx)
    1328:	39 39                	cmp    %edi,(%ecx)
    132a:	39 45 33             	cmp    %eax,0x33(%ebp)
    132d:	38 34 44             	cmp    %dh,(%esp,%eax,2)
    1330:	44                   	inc    %esp
    1331:	00 01                	add    %al,(%ecx)
    1333:	00 5f 5f             	add    %bl,0x5f(%edi)
    1336:	44                   	inc    %esp
    1337:	45                   	inc    %ebp
    1338:	43                   	inc    %ebx
    1339:	36                   	ss
    133a:	34 5f                	xor    $0x5f,%al
    133c:	45                   	inc    %ebp
    133d:	50                   	push   %eax
    133e:	53                   	push   %ebx
    133f:	49                   	dec    %ecx
    1340:	4c                   	dec    %esp
    1341:	4f                   	dec    %edi
    1342:	4e                   	dec    %esi
    1343:	5f                   	pop    %edi
    1344:	5f                   	pop    %edi
    1345:	20 31                	and    %dh,(%ecx)
    1347:	45                   	inc    %ebp
    1348:	2d 31 35 44 44       	sub    $0x44443531,%eax
    134d:	00 01                	add    %al,(%ecx)
    134f:	00 5f 5f             	add    %bl,0x5f(%edi)
    1352:	44                   	inc    %esp
    1353:	45                   	inc    %ebp
    1354:	43                   	inc    %ebx
    1355:	36                   	ss
    1356:	34 5f                	xor    $0x5f,%al
    1358:	53                   	push   %ebx
    1359:	55                   	push   %ebp
    135a:	42                   	inc    %edx
    135b:	4e                   	dec    %esi
    135c:	4f                   	dec    %edi
    135d:	52                   	push   %edx
    135e:	4d                   	dec    %ebp
    135f:	41                   	inc    %ecx
    1360:	4c                   	dec    %esp
    1361:	5f                   	pop    %edi
    1362:	4d                   	dec    %ebp
    1363:	49                   	dec    %ecx
    1364:	4e                   	dec    %esi
    1365:	5f                   	pop    %edi
    1366:	5f                   	pop    %edi
    1367:	20 30                	and    %dh,(%eax)
    1369:	2e 30 30             	xor    %dh,%cs:(%eax)
    136c:	30 30                	xor    %dh,(%eax)
    136e:	30 30                	xor    %dh,(%eax)
    1370:	30 30                	xor    %dh,(%eax)
    1372:	30 30                	xor    %dh,(%eax)
    1374:	30 30                	xor    %dh,(%eax)
    1376:	30 30                	xor    %dh,(%eax)
    1378:	31 45 2d             	xor    %eax,0x2d(%ebp)
    137b:	33 38                	xor    (%eax),%edi
    137d:	33 44 44 00          	xor    0x0(%esp,%eax,2),%eax
    1381:	01 00                	add    %eax,(%eax)
    1383:	5f                   	pop    %edi
    1384:	5f                   	pop    %edi
    1385:	44                   	inc    %esp
    1386:	45                   	inc    %ebp
    1387:	43                   	inc    %ebx
    1388:	31 32                	xor    %esi,(%edx)
    138a:	38 5f 4d             	cmp    %bl,0x4d(%edi)
    138d:	41                   	inc    %ecx
    138e:	4e                   	dec    %esi
    138f:	54                   	push   %esp
    1390:	5f                   	pop    %edi
    1391:	44                   	inc    %esp
    1392:	49                   	dec    %ecx
    1393:	47                   	inc    %edi
    1394:	5f                   	pop    %edi
    1395:	5f                   	pop    %edi
    1396:	20 33                	and    %dh,(%ebx)
    1398:	34 00                	xor    $0x0,%al
    139a:	01 00                	add    %eax,(%eax)
    139c:	5f                   	pop    %edi
    139d:	5f                   	pop    %edi
    139e:	44                   	inc    %esp
    139f:	45                   	inc    %ebp
    13a0:	43                   	inc    %ebx
    13a1:	31 32                	xor    %esi,(%edx)
    13a3:	38 5f 4d             	cmp    %bl,0x4d(%edi)
    13a6:	49                   	dec    %ecx
    13a7:	4e                   	dec    %esi
    13a8:	5f                   	pop    %edi
    13a9:	45                   	inc    %ebp
    13aa:	58                   	pop    %eax
    13ab:	50                   	push   %eax
    13ac:	5f                   	pop    %edi
    13ad:	5f                   	pop    %edi
    13ae:	20 28                	and    %ch,(%eax)
    13b0:	2d 36 31 34 32       	sub    $0x32343136,%eax
    13b5:	29 00                	sub    %eax,(%eax)
    13b7:	01 00                	add    %eax,(%eax)
    13b9:	5f                   	pop    %edi
    13ba:	5f                   	pop    %edi
    13bb:	44                   	inc    %esp
    13bc:	45                   	inc    %ebp
    13bd:	43                   	inc    %ebx
    13be:	31 32                	xor    %esi,(%edx)
    13c0:	38 5f 4d             	cmp    %bl,0x4d(%edi)
    13c3:	41                   	inc    %ecx
    13c4:	58                   	pop    %eax
    13c5:	5f                   	pop    %edi
    13c6:	45                   	inc    %ebp
    13c7:	58                   	pop    %eax
    13c8:	50                   	push   %eax
    13c9:	5f                   	pop    %edi
    13ca:	5f                   	pop    %edi
    13cb:	20 36                	and    %dh,(%esi)
    13cd:	31 34 35 00 01 00 5f 	xor    %esi,0x5f000100(,%esi,1)
    13d4:	5f                   	pop    %edi
    13d5:	44                   	inc    %esp
    13d6:	45                   	inc    %ebp
    13d7:	43                   	inc    %ebx
    13d8:	31 32                	xor    %esi,(%edx)
    13da:	38 5f 4d             	cmp    %bl,0x4d(%edi)
    13dd:	49                   	dec    %ecx
    13de:	4e                   	dec    %esi
    13df:	5f                   	pop    %edi
    13e0:	5f                   	pop    %edi
    13e1:	20 31                	and    %dh,(%ecx)
    13e3:	45                   	inc    %ebp
    13e4:	2d 36 31 34 33       	sub    $0x33343136,%eax
    13e9:	44                   	inc    %esp
    13ea:	4c                   	dec    %esp
    13eb:	00 01                	add    %al,(%ecx)
    13ed:	00 5f 5f             	add    %bl,0x5f(%edi)
    13f0:	44                   	inc    %esp
    13f1:	45                   	inc    %ebp
    13f2:	43                   	inc    %ebx
    13f3:	31 32                	xor    %esi,(%edx)
    13f5:	38 5f 4d             	cmp    %bl,0x4d(%edi)
    13f8:	41                   	inc    %ecx
    13f9:	58                   	pop    %eax
    13fa:	5f                   	pop    %edi
    13fb:	5f                   	pop    %edi
    13fc:	20 39                	and    %bh,(%ecx)
    13fe:	2e 39 39             	cmp    %edi,%cs:(%ecx)
    1401:	39 39                	cmp    %edi,(%ecx)
    1403:	39 39                	cmp    %edi,(%ecx)
    1405:	39 39                	cmp    %edi,(%ecx)
    1407:	39 39                	cmp    %edi,(%ecx)
    1409:	39 39                	cmp    %edi,(%ecx)
    140b:	39 39                	cmp    %edi,(%ecx)
    140d:	39 39                	cmp    %edi,(%ecx)
    140f:	39 39                	cmp    %edi,(%ecx)
    1411:	39 39                	cmp    %edi,(%ecx)
    1413:	39 39                	cmp    %edi,(%ecx)
    1415:	39 39                	cmp    %edi,(%ecx)
    1417:	39 39                	cmp    %edi,(%ecx)
    1419:	39 39                	cmp    %edi,(%ecx)
    141b:	39 39                	cmp    %edi,(%ecx)
    141d:	39 39                	cmp    %edi,(%ecx)
    141f:	39 45 36             	cmp    %eax,0x36(%ebp)
    1422:	31 34 34             	xor    %esi,(%esp,%esi,1)
    1425:	44                   	inc    %esp
    1426:	4c                   	dec    %esp
    1427:	00 01                	add    %al,(%ecx)
    1429:	00 5f 5f             	add    %bl,0x5f(%edi)
    142c:	44                   	inc    %esp
    142d:	45                   	inc    %ebp
    142e:	43                   	inc    %ebx
    142f:	31 32                	xor    %esi,(%edx)
    1431:	38 5f 45             	cmp    %bl,0x45(%edi)
    1434:	50                   	push   %eax
    1435:	53                   	push   %ebx
    1436:	49                   	dec    %ecx
    1437:	4c                   	dec    %esp
    1438:	4f                   	dec    %edi
    1439:	4e                   	dec    %esi
    143a:	5f                   	pop    %edi
    143b:	5f                   	pop    %edi
    143c:	20 31                	and    %dh,(%ecx)
    143e:	45                   	inc    %ebp
    143f:	2d 33 33 44 4c       	sub    $0x4c443333,%eax
    1444:	00 01                	add    %al,(%ecx)
    1446:	00 5f 5f             	add    %bl,0x5f(%edi)
    1449:	44                   	inc    %esp
    144a:	45                   	inc    %ebp
    144b:	43                   	inc    %ebx
    144c:	31 32                	xor    %esi,(%edx)
    144e:	38 5f 53             	cmp    %bl,0x53(%edi)
    1451:	55                   	push   %ebp
    1452:	42                   	inc    %edx
    1453:	4e                   	dec    %esi
    1454:	4f                   	dec    %edi
    1455:	52                   	push   %edx
    1456:	4d                   	dec    %ebp
    1457:	41                   	inc    %ecx
    1458:	4c                   	dec    %esp
    1459:	5f                   	pop    %edi
    145a:	4d                   	dec    %ebp
    145b:	49                   	dec    %ecx
    145c:	4e                   	dec    %esi
    145d:	5f                   	pop    %edi
    145e:	5f                   	pop    %edi
    145f:	20 30                	and    %dh,(%eax)
    1461:	2e 30 30             	xor    %dh,%cs:(%eax)
    1464:	30 30                	xor    %dh,(%eax)
    1466:	30 30                	xor    %dh,(%eax)
    1468:	30 30                	xor    %dh,(%eax)
    146a:	30 30                	xor    %dh,(%eax)
    146c:	30 30                	xor    %dh,(%eax)
    146e:	30 30                	xor    %dh,(%eax)
    1470:	30 30                	xor    %dh,(%eax)
    1472:	30 30                	xor    %dh,(%eax)
    1474:	30 30                	xor    %dh,(%eax)
    1476:	30 30                	xor    %dh,(%eax)
    1478:	30 30                	xor    %dh,(%eax)
    147a:	30 30                	xor    %dh,(%eax)
    147c:	30 30                	xor    %dh,(%eax)
    147e:	30 30                	xor    %dh,(%eax)
    1480:	30 30                	xor    %dh,(%eax)
    1482:	31 45 2d             	xor    %eax,0x2d(%ebp)
    1485:	36 31 34 33          	xor    %esi,%ss:(%ebx,%esi,1)
    1489:	44                   	inc    %esp
    148a:	4c                   	dec    %esp
    148b:	00 01                	add    %al,(%ecx)
    148d:	00 5f 5f             	add    %bl,0x5f(%edi)
    1490:	52                   	push   %edx
    1491:	45                   	inc    %ebp
    1492:	47                   	inc    %edi
    1493:	49                   	dec    %ecx
    1494:	53                   	push   %ebx
    1495:	54                   	push   %esp
    1496:	45                   	inc    %ebp
    1497:	52                   	push   %edx
    1498:	5f                   	pop    %edi
    1499:	50                   	push   %eax
    149a:	52                   	push   %edx
    149b:	45                   	inc    %ebp
    149c:	46                   	inc    %esi
    149d:	49                   	dec    %ecx
    149e:	58                   	pop    %eax
    149f:	5f                   	pop    %edi
    14a0:	5f                   	pop    %edi
    14a1:	20 00                	and    %al,(%eax)
    14a3:	01 00                	add    %eax,(%eax)
    14a5:	5f                   	pop    %edi
    14a6:	5f                   	pop    %edi
    14a7:	55                   	push   %ebp
    14a8:	53                   	push   %ebx
    14a9:	45                   	inc    %ebp
    14aa:	52                   	push   %edx
    14ab:	5f                   	pop    %edi
    14ac:	4c                   	dec    %esp
    14ad:	41                   	inc    %ecx
    14ae:	42                   	inc    %edx
    14af:	45                   	inc    %ebp
    14b0:	4c                   	dec    %esp
    14b1:	5f                   	pop    %edi
    14b2:	50                   	push   %eax
    14b3:	52                   	push   %edx
    14b4:	45                   	inc    %ebp
    14b5:	46                   	inc    %esi
    14b6:	49                   	dec    %ecx
    14b7:	58                   	pop    %eax
    14b8:	5f                   	pop    %edi
    14b9:	5f                   	pop    %edi
    14ba:	20 00                	and    %al,(%eax)
    14bc:	01 00                	add    %eax,(%eax)
    14be:	5f                   	pop    %edi
    14bf:	46                   	inc    %esi
    14c0:	4f                   	dec    %edi
    14c1:	52                   	push   %edx
    14c2:	54                   	push   %esp
    14c3:	49                   	dec    %ecx
    14c4:	46                   	inc    %esi
    14c5:	59                   	pop    %ecx
    14c6:	5f                   	pop    %edi
    14c7:	53                   	push   %ebx
    14c8:	4f                   	dec    %edi
    14c9:	55                   	push   %ebp
    14ca:	52                   	push   %edx
    14cb:	43                   	inc    %ebx
    14cc:	45                   	inc    %ebp
    14cd:	20 32                	and    %dh,(%edx)
    14cf:	00 01                	add    %al,(%ecx)
    14d1:	00 5f 5f             	add    %bl,0x5f(%edi)
    14d4:	47                   	inc    %edi
    14d5:	4e                   	dec    %esi
    14d6:	55                   	push   %ebp
    14d7:	43                   	inc    %ebx
    14d8:	5f                   	pop    %edi
    14d9:	47                   	inc    %edi
    14da:	4e                   	dec    %esi
    14db:	55                   	push   %ebp
    14dc:	5f                   	pop    %edi
    14dd:	49                   	dec    %ecx
    14de:	4e                   	dec    %esi
    14df:	4c                   	dec    %esp
    14e0:	49                   	dec    %ecx
    14e1:	4e                   	dec    %esi
    14e2:	45                   	inc    %ebp
    14e3:	5f                   	pop    %edi
    14e4:	5f                   	pop    %edi
    14e5:	20 31                	and    %dh,(%ecx)
    14e7:	00 01                	add    %al,(%ecx)
    14e9:	00 5f 5f             	add    %bl,0x5f(%edi)
    14ec:	4e                   	dec    %esi
    14ed:	4f                   	dec    %edi
    14ee:	5f                   	pop    %edi
    14ef:	49                   	dec    %ecx
    14f0:	4e                   	dec    %esi
    14f1:	4c                   	dec    %esp
    14f2:	49                   	dec    %ecx
    14f3:	4e                   	dec    %esi
    14f4:	45                   	inc    %ebp
    14f5:	5f                   	pop    %edi
    14f6:	5f                   	pop    %edi
    14f7:	20 31                	and    %dh,(%ecx)
    14f9:	00 01                	add    %al,(%ecx)
    14fb:	00 5f 5f             	add    %bl,0x5f(%edi)
    14fe:	47                   	inc    %edi
    14ff:	43                   	inc    %ebx
    1500:	43                   	inc    %ebx
    1501:	5f                   	pop    %edi
    1502:	48                   	dec    %eax
    1503:	41                   	inc    %ecx
    1504:	56                   	push   %esi
    1505:	45                   	inc    %ebp
    1506:	5f                   	pop    %edi
    1507:	53                   	push   %ebx
    1508:	59                   	pop    %ecx
    1509:	4e                   	dec    %esi
    150a:	43                   	inc    %ebx
    150b:	5f                   	pop    %edi
    150c:	43                   	inc    %ebx
    150d:	4f                   	dec    %edi
    150e:	4d                   	dec    %ebp
    150f:	50                   	push   %eax
    1510:	41                   	inc    %ecx
    1511:	52                   	push   %edx
    1512:	45                   	inc    %ebp
    1513:	5f                   	pop    %edi
    1514:	41                   	inc    %ecx
    1515:	4e                   	dec    %esi
    1516:	44                   	inc    %esp
    1517:	5f                   	pop    %edi
    1518:	53                   	push   %ebx
    1519:	57                   	push   %edi
    151a:	41                   	inc    %ecx
    151b:	50                   	push   %eax
    151c:	5f                   	pop    %edi
    151d:	31 20                	xor    %esp,(%eax)
    151f:	31 00                	xor    %eax,(%eax)
    1521:	01 00                	add    %eax,(%eax)
    1523:	5f                   	pop    %edi
    1524:	5f                   	pop    %edi
    1525:	47                   	inc    %edi
    1526:	43                   	inc    %ebx
    1527:	43                   	inc    %ebx
    1528:	5f                   	pop    %edi
    1529:	48                   	dec    %eax
    152a:	41                   	inc    %ecx
    152b:	56                   	push   %esi
    152c:	45                   	inc    %ebp
    152d:	5f                   	pop    %edi
    152e:	53                   	push   %ebx
    152f:	59                   	pop    %ecx
    1530:	4e                   	dec    %esi
    1531:	43                   	inc    %ebx
    1532:	5f                   	pop    %edi
    1533:	43                   	inc    %ebx
    1534:	4f                   	dec    %edi
    1535:	4d                   	dec    %ebp
    1536:	50                   	push   %eax
    1537:	41                   	inc    %ecx
    1538:	52                   	push   %edx
    1539:	45                   	inc    %ebp
    153a:	5f                   	pop    %edi
    153b:	41                   	inc    %ecx
    153c:	4e                   	dec    %esi
    153d:	44                   	inc    %esp
    153e:	5f                   	pop    %edi
    153f:	53                   	push   %ebx
    1540:	57                   	push   %edi
    1541:	41                   	inc    %ecx
    1542:	50                   	push   %eax
    1543:	5f                   	pop    %edi
    1544:	32 20                	xor    (%eax),%ah
    1546:	31 00                	xor    %eax,(%eax)
    1548:	01 00                	add    %eax,(%eax)
    154a:	5f                   	pop    %edi
    154b:	5f                   	pop    %edi
    154c:	47                   	inc    %edi
    154d:	43                   	inc    %ebx
    154e:	43                   	inc    %ebx
    154f:	5f                   	pop    %edi
    1550:	48                   	dec    %eax
    1551:	41                   	inc    %ecx
    1552:	56                   	push   %esi
    1553:	45                   	inc    %ebp
    1554:	5f                   	pop    %edi
    1555:	53                   	push   %ebx
    1556:	59                   	pop    %ecx
    1557:	4e                   	dec    %esi
    1558:	43                   	inc    %ebx
    1559:	5f                   	pop    %edi
    155a:	43                   	inc    %ebx
    155b:	4f                   	dec    %edi
    155c:	4d                   	dec    %ebp
    155d:	50                   	push   %eax
    155e:	41                   	inc    %ecx
    155f:	52                   	push   %edx
    1560:	45                   	inc    %ebp
    1561:	5f                   	pop    %edi
    1562:	41                   	inc    %ecx
    1563:	4e                   	dec    %esi
    1564:	44                   	inc    %esp
    1565:	5f                   	pop    %edi
    1566:	53                   	push   %ebx
    1567:	57                   	push   %edi
    1568:	41                   	inc    %ecx
    1569:	50                   	push   %eax
    156a:	5f                   	pop    %edi
    156b:	34 20                	xor    $0x20,%al
    156d:	31 00                	xor    %eax,(%eax)
    156f:	01 00                	add    %eax,(%eax)
    1571:	5f                   	pop    %edi
    1572:	5f                   	pop    %edi
    1573:	47                   	inc    %edi
    1574:	43                   	inc    %ebx
    1575:	43                   	inc    %ebx
    1576:	5f                   	pop    %edi
    1577:	48                   	dec    %eax
    1578:	41                   	inc    %ecx
    1579:	56                   	push   %esi
    157a:	45                   	inc    %ebp
    157b:	5f                   	pop    %edi
    157c:	53                   	push   %ebx
    157d:	59                   	pop    %ecx
    157e:	4e                   	dec    %esi
    157f:	43                   	inc    %ebx
    1580:	5f                   	pop    %edi
    1581:	43                   	inc    %ebx
    1582:	4f                   	dec    %edi
    1583:	4d                   	dec    %ebp
    1584:	50                   	push   %eax
    1585:	41                   	inc    %ecx
    1586:	52                   	push   %edx
    1587:	45                   	inc    %ebp
    1588:	5f                   	pop    %edi
    1589:	41                   	inc    %ecx
    158a:	4e                   	dec    %esi
    158b:	44                   	inc    %esp
    158c:	5f                   	pop    %edi
    158d:	53                   	push   %ebx
    158e:	57                   	push   %edi
    158f:	41                   	inc    %ecx
    1590:	50                   	push   %eax
    1591:	5f                   	pop    %edi
    1592:	38 20                	cmp    %ah,(%eax)
    1594:	31 00                	xor    %eax,(%eax)
    1596:	01 00                	add    %eax,(%eax)
    1598:	5f                   	pop    %edi
    1599:	5f                   	pop    %edi
    159a:	47                   	inc    %edi
    159b:	43                   	inc    %ebx
    159c:	43                   	inc    %ebx
    159d:	5f                   	pop    %edi
    159e:	48                   	dec    %eax
    159f:	41                   	inc    %ecx
    15a0:	56                   	push   %esi
    15a1:	45                   	inc    %ebp
    15a2:	5f                   	pop    %edi
    15a3:	44                   	inc    %esp
    15a4:	57                   	push   %edi
    15a5:	41                   	inc    %ecx
    15a6:	52                   	push   %edx
    15a7:	46                   	inc    %esi
    15a8:	32 5f 43             	xor    0x43(%edi),%bl
    15ab:	46                   	inc    %esi
    15ac:	49                   	dec    %ecx
    15ad:	5f                   	pop    %edi
    15ae:	41                   	inc    %ecx
    15af:	53                   	push   %ebx
    15b0:	4d                   	dec    %ebp
    15b1:	20 31                	and    %dh,(%ecx)
    15b3:	00 01                	add    %al,(%ecx)
    15b5:	00 5f 5f             	add    %bl,0x5f(%edi)
    15b8:	50                   	push   %eax
    15b9:	52                   	push   %edx
    15ba:	41                   	inc    %ecx
    15bb:	47                   	inc    %edi
    15bc:	4d                   	dec    %ebp
    15bd:	41                   	inc    %ecx
    15be:	5f                   	pop    %edi
    15bf:	52                   	push   %edx
    15c0:	45                   	inc    %ebp
    15c1:	44                   	inc    %esp
    15c2:	45                   	inc    %ebp
    15c3:	46                   	inc    %esi
    15c4:	49                   	dec    %ecx
    15c5:	4e                   	dec    %esi
    15c6:	45                   	inc    %ebp
    15c7:	5f                   	pop    %edi
    15c8:	45                   	inc    %ebp
    15c9:	58                   	pop    %eax
    15ca:	54                   	push   %esp
    15cb:	4e                   	dec    %esi
    15cc:	41                   	inc    %ecx
    15cd:	4d                   	dec    %ebp
    15ce:	45                   	inc    %ebp
    15cf:	20 31                	and    %dh,(%ecx)
    15d1:	00 01                	add    %al,(%ecx)
    15d3:	00 5f 5f             	add    %bl,0x5f(%edi)
    15d6:	53                   	push   %ebx
    15d7:	53                   	push   %ebx
    15d8:	50                   	push   %eax
    15d9:	5f                   	pop    %edi
    15da:	5f                   	pop    %edi
    15db:	20 31                	and    %dh,(%ecx)
    15dd:	00 01                	add    %al,(%ecx)
    15df:	00 5f 5f             	add    %bl,0x5f(%edi)
    15e2:	53                   	push   %ebx
    15e3:	49                   	dec    %ecx
    15e4:	5a                   	pop    %edx
    15e5:	45                   	inc    %ebp
    15e6:	4f                   	dec    %edi
    15e7:	46                   	inc    %esi
    15e8:	5f                   	pop    %edi
    15e9:	57                   	push   %edi
    15ea:	43                   	inc    %ebx
    15eb:	48                   	dec    %eax
    15ec:	41                   	inc    %ecx
    15ed:	52                   	push   %edx
    15ee:	5f                   	pop    %edi
    15ef:	54                   	push   %esp
    15f0:	5f                   	pop    %edi
    15f1:	5f                   	pop    %edi
    15f2:	20 34 00             	and    %dh,(%eax,%eax,1)
    15f5:	01 00                	add    %eax,(%eax)
    15f7:	5f                   	pop    %edi
    15f8:	5f                   	pop    %edi
    15f9:	53                   	push   %ebx
    15fa:	49                   	dec    %ecx
    15fb:	5a                   	pop    %edx
    15fc:	45                   	inc    %ebp
    15fd:	4f                   	dec    %edi
    15fe:	46                   	inc    %esi
    15ff:	5f                   	pop    %edi
    1600:	57                   	push   %edi
    1601:	49                   	dec    %ecx
    1602:	4e                   	dec    %esi
    1603:	54                   	push   %esp
    1604:	5f                   	pop    %edi
    1605:	54                   	push   %esp
    1606:	5f                   	pop    %edi
    1607:	5f                   	pop    %edi
    1608:	20 34 00             	and    %dh,(%eax,%eax,1)
    160b:	01 00                	add    %eax,(%eax)
    160d:	5f                   	pop    %edi
    160e:	5f                   	pop    %edi
    160f:	53                   	push   %ebx
    1610:	49                   	dec    %ecx
    1611:	5a                   	pop    %edx
    1612:	45                   	inc    %ebp
    1613:	4f                   	dec    %edi
    1614:	46                   	inc    %esi
    1615:	5f                   	pop    %edi
    1616:	50                   	push   %eax
    1617:	54                   	push   %esp
    1618:	52                   	push   %edx
    1619:	44                   	inc    %esp
    161a:	49                   	dec    %ecx
    161b:	46                   	inc    %esi
    161c:	46                   	inc    %esi
    161d:	5f                   	pop    %edi
    161e:	54                   	push   %esp
    161f:	5f                   	pop    %edi
    1620:	5f                   	pop    %edi
    1621:	20 34 00             	and    %dh,(%eax,%eax,1)
    1624:	01 00                	add    %eax,(%eax)
    1626:	5f                   	pop    %edi
    1627:	5f                   	pop    %edi
    1628:	69 33 38 36 20 31    	imul   $0x31203638,(%ebx),%esi
    162e:	00 01                	add    %al,(%ecx)
    1630:	00 5f 5f             	add    %bl,0x5f(%edi)
    1633:	69 33 38 36 5f 5f    	imul   $0x5f5f3638,(%ebx),%esi
    1639:	20 31                	and    %dh,(%ecx)
    163b:	00 01                	add    %al,(%ecx)
    163d:	00 69 33             	add    %ch,0x33(%ecx)
    1640:	38 36                	cmp    %dh,(%esi)
    1642:	20 31                	and    %dh,(%ecx)
    1644:	00 01                	add    %al,(%ecx)
    1646:	00 5f 5f             	add    %bl,0x5f(%edi)
    1649:	69 36 38 36 20 31    	imul   $0x31203638,(%esi),%esi
    164f:	00 01                	add    %al,(%ecx)
    1651:	00 5f 5f             	add    %bl,0x5f(%edi)
    1654:	69 36 38 36 5f 5f    	imul   $0x5f5f3638,(%esi),%esi
    165a:	20 31                	and    %dh,(%ecx)
    165c:	00 01                	add    %al,(%ecx)
    165e:	00 5f 5f             	add    %bl,0x5f(%edi)
    1661:	70 65                	jo     16c8 <__FRAME_END__+0x1124>
    1663:	6e                   	outsb  %ds:(%esi),(%dx)
    1664:	74 69                	je     16cf <__FRAME_END__+0x112b>
    1666:	75 6d                	jne    16d5 <__FRAME_END__+0x1131>
    1668:	70 72                	jo     16dc <__FRAME_END__+0x1138>
    166a:	6f                   	outsl  %ds:(%esi),(%dx)
    166b:	20 31                	and    %dh,(%ecx)
    166d:	00 01                	add    %al,(%ecx)
    166f:	00 5f 5f             	add    %bl,0x5f(%edi)
    1672:	70 65                	jo     16d9 <__FRAME_END__+0x1135>
    1674:	6e                   	outsb  %ds:(%esi),(%dx)
    1675:	74 69                	je     16e0 <__FRAME_END__+0x113c>
    1677:	75 6d                	jne    16e6 <__FRAME_END__+0x1142>
    1679:	70 72                	jo     16ed <__FRAME_END__+0x1149>
    167b:	6f                   	outsl  %ds:(%esi),(%dx)
    167c:	5f                   	pop    %edi
    167d:	5f                   	pop    %edi
    167e:	20 31                	and    %dh,(%ecx)
    1680:	00 01                	add    %al,(%ecx)
    1682:	00 5f 5f             	add    %bl,0x5f(%edi)
    1685:	67 6e                	outsb  %ds:(%si),(%dx)
    1687:	75 5f                	jne    16e8 <__FRAME_END__+0x1144>
    1689:	6c                   	insb   (%dx),%es:(%edi)
    168a:	69 6e 75 78 5f 5f 20 	imul   $0x205f5f78,0x75(%esi),%ebp
    1691:	31 00                	xor    %eax,(%eax)
    1693:	01 00                	add    %eax,(%eax)
    1695:	5f                   	pop    %edi
    1696:	5f                   	pop    %edi
    1697:	6c                   	insb   (%dx),%es:(%edi)
    1698:	69 6e 75 78 20 31 00 	imul   $0x312078,0x75(%esi),%ebp
    169f:	01 00                	add    %eax,(%eax)
    16a1:	5f                   	pop    %edi
    16a2:	5f                   	pop    %edi
    16a3:	6c                   	insb   (%dx),%es:(%edi)
    16a4:	69 6e 75 78 5f 5f 20 	imul   $0x205f5f78,0x75(%esi),%ebp
    16ab:	31 00                	xor    %eax,(%eax)
    16ad:	01 00                	add    %eax,(%eax)
    16af:	6c                   	insb   (%dx),%es:(%edi)
    16b0:	69 6e 75 78 20 31 00 	imul   $0x312078,0x75(%esi),%ebp
    16b7:	01 00                	add    %eax,(%eax)
    16b9:	5f                   	pop    %edi
    16ba:	5f                   	pop    %edi
    16bb:	75 6e                	jne    172b <__FRAME_END__+0x1187>
    16bd:	69 78 20 31 00 01 00 	imul   $0x10031,0x20(%eax),%edi
    16c4:	5f                   	pop    %edi
    16c5:	5f                   	pop    %edi
    16c6:	75 6e                	jne    1736 <__FRAME_END__+0x1192>
    16c8:	69 78 5f 5f 20 31 00 	imul   $0x31205f,0x5f(%eax),%edi
    16cf:	01 00                	add    %eax,(%eax)
    16d1:	75 6e                	jne    1741 <__FRAME_END__+0x119d>
    16d3:	69 78 20 31 00 01 00 	imul   $0x10031,0x20(%eax),%edi
    16da:	5f                   	pop    %edi
    16db:	5f                   	pop    %edi
    16dc:	45                   	inc    %ebp
    16dd:	4c                   	dec    %esp
    16de:	46                   	inc    %esi
    16df:	5f                   	pop    %edi
    16e0:	5f                   	pop    %edi
    16e1:	20 31                	and    %dh,(%ecx)
    16e3:	00 01                	add    %al,(%ecx)
    16e5:	00 5f 5f             	add    %bl,0x5f(%edi)
    16e8:	44                   	inc    %esp
    16e9:	45                   	inc    %ebp
    16ea:	43                   	inc    %ebx
    16eb:	49                   	dec    %ecx
    16ec:	4d                   	dec    %ebp
    16ed:	41                   	inc    %ecx
    16ee:	4c                   	dec    %esp
    16ef:	5f                   	pop    %edi
    16f0:	42                   	inc    %edx
    16f1:	49                   	dec    %ecx
    16f2:	44                   	inc    %esp
    16f3:	5f                   	pop    %edi
    16f4:	46                   	inc    %esi
    16f5:	4f                   	dec    %edi
    16f6:	52                   	push   %edx
    16f7:	4d                   	dec    %ebp
    16f8:	41                   	inc    %ecx
    16f9:	54                   	push   %esp
    16fa:	5f                   	pop    %edi
    16fb:	5f                   	pop    %edi
    16fc:	20 31                	and    %dh,(%ecx)
    16fe:	00 03                	add    %al,(%ebx)
    1700:	00 01                	add    %al,(%ecx)
    1702:	03 02                	add    (%edx),%eax
    1704:	02 01                	add    (%ecx),%al
    1706:	1b 5f 53             	sbb    0x53(%edi),%ebx
    1709:	54                   	push   %esp
    170a:	44                   	inc    %esp
    170b:	49                   	dec    %ecx
    170c:	4f                   	dec    %edi
    170d:	5f                   	pop    %edi
    170e:	48                   	dec    %eax
    170f:	20 31                	and    %dh,(%ecx)
    1711:	00 03                	add    %al,(%ebx)
    1713:	1c 03                	sbb    $0x3,%al
    1715:	01 15 5f 46 45 41    	add    %edx,0x4145465f
    171b:	54                   	push   %esp
    171c:	55                   	push   %ebp
    171d:	52                   	push   %edx
    171e:	45                   	inc    %ebp
    171f:	53                   	push   %ebx
    1720:	5f                   	pop    %edi
    1721:	48                   	dec    %eax
    1722:	20 31                	and    %dh,(%ecx)
    1724:	00 02                	add    %al,(%edx)
    1726:	62 5f 5f             	bound  %ebx,0x5f(%edi)
    1729:	55                   	push   %ebp
    172a:	53                   	push   %ebx
    172b:	45                   	inc    %ebp
    172c:	5f                   	pop    %edi
    172d:	49                   	dec    %ecx
    172e:	53                   	push   %ebx
    172f:	4f                   	dec    %edi
    1730:	43                   	inc    %ebx
    1731:	39 39                	cmp    %edi,(%ecx)
    1733:	00 02                	add    %al,(%edx)
    1735:	63 5f 5f             	arpl   %bx,0x5f(%edi)
    1738:	55                   	push   %ebp
    1739:	53                   	push   %ebx
    173a:	45                   	inc    %ebp
    173b:	5f                   	pop    %edi
    173c:	49                   	dec    %ecx
    173d:	53                   	push   %ebx
    173e:	4f                   	dec    %edi
    173f:	43                   	inc    %ebx
    1740:	39 35 00 02 64 5f    	cmp    %esi,0x5f640200
    1746:	5f                   	pop    %edi
    1747:	55                   	push   %ebp
    1748:	53                   	push   %ebx
    1749:	45                   	inc    %ebp
    174a:	5f                   	pop    %edi
    174b:	50                   	push   %eax
    174c:	4f                   	dec    %edi
    174d:	53                   	push   %ebx
    174e:	49                   	dec    %ecx
    174f:	58                   	pop    %eax
    1750:	00 02                	add    %al,(%edx)
    1752:	65                   	gs
    1753:	5f                   	pop    %edi
    1754:	5f                   	pop    %edi
    1755:	55                   	push   %ebp
    1756:	53                   	push   %ebx
    1757:	45                   	inc    %ebp
    1758:	5f                   	pop    %edi
    1759:	50                   	push   %eax
    175a:	4f                   	dec    %edi
    175b:	53                   	push   %ebx
    175c:	49                   	dec    %ecx
    175d:	58                   	pop    %eax
    175e:	32 00                	xor    (%eax),%al
    1760:	02 66 5f             	add    0x5f(%esi),%ah
    1763:	5f                   	pop    %edi
    1764:	55                   	push   %ebp
    1765:	53                   	push   %ebx
    1766:	45                   	inc    %ebp
    1767:	5f                   	pop    %edi
    1768:	50                   	push   %eax
    1769:	4f                   	dec    %edi
    176a:	53                   	push   %ebx
    176b:	49                   	dec    %ecx
    176c:	58                   	pop    %eax
    176d:	31 39                	xor    %edi,(%ecx)
    176f:	39 33                	cmp    %esi,(%ebx)
    1771:	30 39                	xor    %bh,(%ecx)
    1773:	00 02                	add    %al,(%edx)
    1775:	67 5f                	addr16 pop %edi
    1777:	5f                   	pop    %edi
    1778:	55                   	push   %ebp
    1779:	53                   	push   %ebx
    177a:	45                   	inc    %ebp
    177b:	5f                   	pop    %edi
    177c:	50                   	push   %eax
    177d:	4f                   	dec    %edi
    177e:	53                   	push   %ebx
    177f:	49                   	dec    %ecx
    1780:	58                   	pop    %eax
    1781:	31 39                	xor    %edi,(%ecx)
    1783:	39 35 30 36 00 02    	cmp    %esi,0x2003630
    1789:	68 5f 5f 55 53       	push   $0x53555f5f
    178e:	45                   	inc    %ebp
    178f:	5f                   	pop    %edi
    1790:	58                   	pop    %eax
    1791:	4f                   	dec    %edi
    1792:	50                   	push   %eax
    1793:	45                   	inc    %ebp
    1794:	4e                   	dec    %esi
    1795:	00 02                	add    %al,(%edx)
    1797:	69 5f 5f 55 53 45 5f 	imul   $0x5f455355,0x5f(%edi),%ebx
    179e:	58                   	pop    %eax
    179f:	4f                   	dec    %edi
    17a0:	50                   	push   %eax
    17a1:	45                   	inc    %ebp
    17a2:	4e                   	dec    %esi
    17a3:	5f                   	pop    %edi
    17a4:	45                   	inc    %ebp
    17a5:	58                   	pop    %eax
    17a6:	54                   	push   %esp
    17a7:	45                   	inc    %ebp
    17a8:	4e                   	dec    %esi
    17a9:	44                   	inc    %esp
    17aa:	45                   	inc    %ebp
    17ab:	44                   	inc    %esp
    17ac:	00 02                	add    %al,(%edx)
    17ae:	6a 5f                	push   $0x5f
    17b0:	5f                   	pop    %edi
    17b1:	55                   	push   %ebp
    17b2:	53                   	push   %ebx
    17b3:	45                   	inc    %ebp
    17b4:	5f                   	pop    %edi
    17b5:	55                   	push   %ebp
    17b6:	4e                   	dec    %esi
    17b7:	49                   	dec    %ecx
    17b8:	58                   	pop    %eax
    17b9:	39 38                	cmp    %edi,(%eax)
    17bb:	00 02                	add    %al,(%edx)
    17bd:	6b 5f 5f 55          	imul   $0x55,0x5f(%edi),%ebx
    17c1:	53                   	push   %ebx
    17c2:	45                   	inc    %ebp
    17c3:	5f                   	pop    %edi
    17c4:	58                   	pop    %eax
    17c5:	4f                   	dec    %edi
    17c6:	50                   	push   %eax
    17c7:	45                   	inc    %ebp
    17c8:	4e                   	dec    %esi
    17c9:	32 4b 00             	xor    0x0(%ebx),%cl
    17cc:	02 6c 5f 5f          	add    0x5f(%edi,%ebx,2),%ch
    17d0:	55                   	push   %ebp
    17d1:	53                   	push   %ebx
    17d2:	45                   	inc    %ebp
    17d3:	5f                   	pop    %edi
    17d4:	58                   	pop    %eax
    17d5:	4f                   	dec    %edi
    17d6:	50                   	push   %eax
    17d7:	45                   	inc    %ebp
    17d8:	4e                   	dec    %esi
    17d9:	32 4b 58             	xor    0x58(%ebx),%cl
    17dc:	53                   	push   %ebx
    17dd:	49                   	dec    %ecx
    17de:	00 02                	add    %al,(%edx)
    17e0:	6d                   	insl   (%dx),%es:(%edi)
    17e1:	5f                   	pop    %edi
    17e2:	5f                   	pop    %edi
    17e3:	55                   	push   %ebp
    17e4:	53                   	push   %ebx
    17e5:	45                   	inc    %ebp
    17e6:	5f                   	pop    %edi
    17e7:	58                   	pop    %eax
    17e8:	4f                   	dec    %edi
    17e9:	50                   	push   %eax
    17ea:	45                   	inc    %ebp
    17eb:	4e                   	dec    %esi
    17ec:	32 4b 38             	xor    0x38(%ebx),%cl
    17ef:	00 02                	add    %al,(%edx)
    17f1:	6e                   	outsb  %ds:(%esi),(%dx)
    17f2:	5f                   	pop    %edi
    17f3:	5f                   	pop    %edi
    17f4:	55                   	push   %ebp
    17f5:	53                   	push   %ebx
    17f6:	45                   	inc    %ebp
    17f7:	5f                   	pop    %edi
    17f8:	58                   	pop    %eax
    17f9:	4f                   	dec    %edi
    17fa:	50                   	push   %eax
    17fb:	45                   	inc    %ebp
    17fc:	4e                   	dec    %esi
    17fd:	32 4b 38             	xor    0x38(%ebx),%cl
    1800:	58                   	pop    %eax
    1801:	53                   	push   %ebx
    1802:	49                   	dec    %ecx
    1803:	00 02                	add    %al,(%edx)
    1805:	6f                   	outsl  %ds:(%esi),(%dx)
    1806:	5f                   	pop    %edi
    1807:	5f                   	pop    %edi
    1808:	55                   	push   %ebp
    1809:	53                   	push   %ebx
    180a:	45                   	inc    %ebp
    180b:	5f                   	pop    %edi
    180c:	4c                   	dec    %esp
    180d:	41                   	inc    %ecx
    180e:	52                   	push   %edx
    180f:	47                   	inc    %edi
    1810:	45                   	inc    %ebp
    1811:	46                   	inc    %esi
    1812:	49                   	dec    %ecx
    1813:	4c                   	dec    %esp
    1814:	45                   	inc    %ebp
    1815:	00 02                	add    %al,(%edx)
    1817:	70 5f                	jo     1878 <__FRAME_END__+0x12d4>
    1819:	5f                   	pop    %edi
    181a:	55                   	push   %ebp
    181b:	53                   	push   %ebx
    181c:	45                   	inc    %ebp
    181d:	5f                   	pop    %edi
    181e:	4c                   	dec    %esp
    181f:	41                   	inc    %ecx
    1820:	52                   	push   %edx
    1821:	47                   	inc    %edi
    1822:	45                   	inc    %ebp
    1823:	46                   	inc    %esi
    1824:	49                   	dec    %ecx
    1825:	4c                   	dec    %esp
    1826:	45                   	inc    %ebp
    1827:	36                   	ss
    1828:	34 00                	xor    $0x0,%al
    182a:	02 71 5f             	add    0x5f(%ecx),%dh
    182d:	5f                   	pop    %edi
    182e:	55                   	push   %ebp
    182f:	53                   	push   %ebx
    1830:	45                   	inc    %ebp
    1831:	5f                   	pop    %edi
    1832:	46                   	inc    %esi
    1833:	49                   	dec    %ecx
    1834:	4c                   	dec    %esp
    1835:	45                   	inc    %ebp
    1836:	5f                   	pop    %edi
    1837:	4f                   	dec    %edi
    1838:	46                   	inc    %esi
    1839:	46                   	inc    %esi
    183a:	53                   	push   %ebx
    183b:	45                   	inc    %ebp
    183c:	54                   	push   %esp
    183d:	36                   	ss
    183e:	34 00                	xor    $0x0,%al
    1840:	02 72 5f             	add    0x5f(%edx),%dh
    1843:	5f                   	pop    %edi
    1844:	55                   	push   %ebp
    1845:	53                   	push   %ebx
    1846:	45                   	inc    %ebp
    1847:	5f                   	pop    %edi
    1848:	42                   	inc    %edx
    1849:	53                   	push   %ebx
    184a:	44                   	inc    %esp
    184b:	00 02                	add    %al,(%edx)
    184d:	73 5f                	jae    18ae <__FRAME_END__+0x130a>
    184f:	5f                   	pop    %edi
    1850:	55                   	push   %ebp
    1851:	53                   	push   %ebx
    1852:	45                   	inc    %ebp
    1853:	5f                   	pop    %edi
    1854:	53                   	push   %ebx
    1855:	56                   	push   %esi
    1856:	49                   	dec    %ecx
    1857:	44                   	inc    %esp
    1858:	00 02                	add    %al,(%edx)
    185a:	74 5f                	je     18bb <__FRAME_END__+0x1317>
    185c:	5f                   	pop    %edi
    185d:	55                   	push   %ebp
    185e:	53                   	push   %ebx
    185f:	45                   	inc    %ebp
    1860:	5f                   	pop    %edi
    1861:	4d                   	dec    %ebp
    1862:	49                   	dec    %ecx
    1863:	53                   	push   %ebx
    1864:	43                   	inc    %ebx
    1865:	00 02                	add    %al,(%edx)
    1867:	75 5f                	jne    18c8 <__FRAME_END__+0x1324>
    1869:	5f                   	pop    %edi
    186a:	55                   	push   %ebp
    186b:	53                   	push   %ebx
    186c:	45                   	inc    %ebp
    186d:	5f                   	pop    %edi
    186e:	41                   	inc    %ecx
    186f:	54                   	push   %esp
    1870:	46                   	inc    %esi
    1871:	49                   	dec    %ecx
    1872:	4c                   	dec    %esp
    1873:	45                   	inc    %ebp
    1874:	00 02                	add    %al,(%edx)
    1876:	76 5f                	jbe    18d7 <__FRAME_END__+0x1333>
    1878:	5f                   	pop    %edi
    1879:	55                   	push   %ebp
    187a:	53                   	push   %ebx
    187b:	45                   	inc    %ebp
    187c:	5f                   	pop    %edi
    187d:	47                   	inc    %edi
    187e:	4e                   	dec    %esi
    187f:	55                   	push   %ebp
    1880:	00 02                	add    %al,(%edx)
    1882:	77 5f                	ja     18e3 <__FRAME_END__+0x133f>
    1884:	5f                   	pop    %edi
    1885:	55                   	push   %ebp
    1886:	53                   	push   %ebx
    1887:	45                   	inc    %ebp
    1888:	5f                   	pop    %edi
    1889:	52                   	push   %edx
    188a:	45                   	inc    %ebp
    188b:	45                   	inc    %ebp
    188c:	4e                   	dec    %esi
    188d:	54                   	push   %esp
    188e:	52                   	push   %edx
    188f:	41                   	inc    %ecx
    1890:	4e                   	dec    %esi
    1891:	54                   	push   %esp
    1892:	00 02                	add    %al,(%edx)
    1894:	78 5f                	js     18f5 <__FRAME_END__+0x1351>
    1896:	5f                   	pop    %edi
    1897:	55                   	push   %ebp
    1898:	53                   	push   %ebx
    1899:	45                   	inc    %ebp
    189a:	5f                   	pop    %edi
    189b:	46                   	inc    %esi
    189c:	4f                   	dec    %edi
    189d:	52                   	push   %edx
    189e:	54                   	push   %esp
    189f:	49                   	dec    %ecx
    18a0:	46                   	inc    %esi
    18a1:	59                   	pop    %ecx
    18a2:	5f                   	pop    %edi
    18a3:	4c                   	dec    %esp
    18a4:	45                   	inc    %ebp
    18a5:	56                   	push   %esi
    18a6:	45                   	inc    %ebp
    18a7:	4c                   	dec    %esp
    18a8:	00 02                	add    %al,(%edx)
    18aa:	79 5f                	jns    190b <__FRAME_END__+0x1367>
    18ac:	5f                   	pop    %edi
    18ad:	46                   	inc    %esi
    18ae:	41                   	inc    %ecx
    18af:	56                   	push   %esi
    18b0:	4f                   	dec    %edi
    18b1:	52                   	push   %edx
    18b2:	5f                   	pop    %edi
    18b3:	42                   	inc    %edx
    18b4:	53                   	push   %ebx
    18b5:	44                   	inc    %esp
    18b6:	00 02                	add    %al,(%edx)
    18b8:	7a 5f                	jp     1919 <__FRAME_END__+0x1375>
    18ba:	5f                   	pop    %edi
    18bb:	4b                   	dec    %ebx
    18bc:	45                   	inc    %ebp
    18bd:	52                   	push   %edx
    18be:	4e                   	dec    %esi
    18bf:	45                   	inc    %ebp
    18c0:	4c                   	dec    %esp
    18c1:	5f                   	pop    %edi
    18c2:	53                   	push   %ebx
    18c3:	54                   	push   %esp
    18c4:	52                   	push   %edx
    18c5:	49                   	dec    %ecx
    18c6:	43                   	inc    %ebx
    18c7:	54                   	push   %esp
    18c8:	5f                   	pop    %edi
    18c9:	4e                   	dec    %esi
    18ca:	41                   	inc    %ecx
    18cb:	4d                   	dec    %ebp
    18cc:	45                   	inc    %ebp
    18cd:	53                   	push   %ebx
    18ce:	00 01                	add    %al,(%ecx)
    18d0:	7f 5f                	jg     1931 <__FRAME_END__+0x138d>
    18d2:	5f                   	pop    %edi
    18d3:	4b                   	dec    %ebx
    18d4:	45                   	inc    %ebp
    18d5:	52                   	push   %edx
    18d6:	4e                   	dec    %esi
    18d7:	45                   	inc    %ebp
    18d8:	4c                   	dec    %esp
    18d9:	5f                   	pop    %edi
    18da:	53                   	push   %ebx
    18db:	54                   	push   %esp
    18dc:	52                   	push   %edx
    18dd:	49                   	dec    %ecx
    18de:	43                   	inc    %ebx
    18df:	54                   	push   %esp
    18e0:	5f                   	pop    %edi
    18e1:	4e                   	dec    %esi
    18e2:	41                   	inc    %ecx
    18e3:	4d                   	dec    %ebp
    18e4:	45                   	inc    %ebp
    18e5:	53                   	push   %ebx
    18e6:	20 00                	and    %al,(%eax)
    18e8:	01 83 01 5f 5f 55    	add    %eax,0x555f5f01(%ebx)
    18ee:	53                   	push   %ebx
    18ef:	45                   	inc    %ebp
    18f0:	5f                   	pop    %edi
    18f1:	41                   	inc    %ecx
    18f2:	4e                   	dec    %esi
    18f3:	53                   	push   %ebx
    18f4:	49                   	dec    %ecx
    18f5:	20 31                	and    %dh,(%ecx)
    18f7:	00 01                	add    %al,(%ecx)
    18f9:	8d 01                	lea    (%ecx),%eax
    18fb:	5f                   	pop    %edi
    18fc:	5f                   	pop    %edi
    18fd:	47                   	inc    %edi
    18fe:	4e                   	dec    %esi
    18ff:	55                   	push   %ebp
    1900:	43                   	inc    %ebx
    1901:	5f                   	pop    %edi
    1902:	50                   	push   %eax
    1903:	52                   	push   %edx
    1904:	45                   	inc    %ebp
    1905:	52                   	push   %edx
    1906:	45                   	inc    %ebp
    1907:	51                   	push   %ecx
    1908:	28 6d 61             	sub    %ch,0x61(%ebp)
    190b:	6a 2c                	push   $0x2c
    190d:	6d                   	insl   (%dx),%es:(%edi)
    190e:	69 6e 29 20 28 28 5f 	imul   $0x5f282820,0x29(%esi),%ebp
    1915:	5f                   	pop    %edi
    1916:	47                   	inc    %edi
    1917:	4e                   	dec    %esi
    1918:	55                   	push   %ebp
    1919:	43                   	inc    %ebx
    191a:	5f                   	pop    %edi
    191b:	5f                   	pop    %edi
    191c:	20 3c 3c             	and    %bh,(%esp,%edi,1)
    191f:	20 31                	and    %dh,(%ecx)
    1921:	36 29 20             	sub    %esp,%ss:(%eax)
    1924:	2b 20                	sub    (%eax),%esp
    1926:	5f                   	pop    %edi
    1927:	5f                   	pop    %edi
    1928:	47                   	inc    %edi
    1929:	4e                   	dec    %esi
    192a:	55                   	push   %ebp
    192b:	43                   	inc    %ebx
    192c:	5f                   	pop    %edi
    192d:	4d                   	dec    %ebp
    192e:	49                   	dec    %ecx
    192f:	4e                   	dec    %esi
    1930:	4f                   	dec    %edi
    1931:	52                   	push   %edx
    1932:	5f                   	pop    %edi
    1933:	5f                   	pop    %edi
    1934:	20 3e                	and    %bh,(%esi)
    1936:	3d 20 28 28 6d       	cmp    $0x6d282820,%eax
    193b:	61                   	popa   
    193c:	6a 29                	push   $0x29
    193e:	20 3c 3c             	and    %bh,(%esp,%edi,1)
    1941:	20 31                	and    %dh,(%ecx)
    1943:	36 29 20             	sub    %esp,%ss:(%eax)
    1946:	2b 20                	sub    (%eax),%esp
    1948:	28 6d 69             	sub    %ch,0x69(%ebp)
    194b:	6e                   	outsb  %ds:(%esi),(%dx)
    194c:	29 29                	sub    %ebp,(%ecx)
    194e:	00 01                	add    %al,(%ecx)
    1950:	b8 01 5f 42 53       	mov    $0x53425f01,%eax
    1955:	44                   	inc    %esp
    1956:	5f                   	pop    %edi
    1957:	53                   	push   %ebx
    1958:	4f                   	dec    %edi
    1959:	55                   	push   %ebp
    195a:	52                   	push   %edx
    195b:	43                   	inc    %ebx
    195c:	45                   	inc    %ebp
    195d:	20 31                	and    %dh,(%ecx)
    195f:	00 01                	add    %al,(%ecx)
    1961:	b9 01 5f 53 56       	mov    $0x56535f01,%ecx
    1966:	49                   	dec    %ecx
    1967:	44                   	inc    %esp
    1968:	5f                   	pop    %edi
    1969:	53                   	push   %ebx
    196a:	4f                   	dec    %edi
    196b:	55                   	push   %ebp
    196c:	52                   	push   %edx
    196d:	43                   	inc    %ebx
    196e:	45                   	inc    %ebp
    196f:	20 31                	and    %dh,(%ecx)
    1971:	00 01                	add    %al,(%ecx)
    1973:	cf                   	iret   
    1974:	01 5f 50             	add    %ebx,0x50(%edi)
    1977:	4f                   	dec    %edi
    1978:	53                   	push   %ebx
    1979:	49                   	dec    %ecx
    197a:	58                   	pop    %eax
    197b:	5f                   	pop    %edi
    197c:	53                   	push   %ebx
    197d:	4f                   	dec    %edi
    197e:	55                   	push   %ebp
    197f:	52                   	push   %edx
    1980:	43                   	inc    %ebx
    1981:	45                   	inc    %ebp
    1982:	20 31                	and    %dh,(%ecx)
    1984:	00 01                	add    %al,(%ecx)
    1986:	d7                   	xlat   %ds:(%ebx)
    1987:	01 5f 50             	add    %ebx,0x50(%edi)
    198a:	4f                   	dec    %edi
    198b:	53                   	push   %ebx
    198c:	49                   	dec    %ecx
    198d:	58                   	pop    %eax
    198e:	5f                   	pop    %edi
    198f:	43                   	inc    %ebx
    1990:	5f                   	pop    %edi
    1991:	53                   	push   %ebx
    1992:	4f                   	dec    %edi
    1993:	55                   	push   %ebp
    1994:	52                   	push   %edx
    1995:	43                   	inc    %ebx
    1996:	45                   	inc    %ebp
    1997:	20 32                	and    %dh,(%edx)
    1999:	30 30                	xor    %dh,(%eax)
    199b:	38 30                	cmp    %dh,(%eax)
    199d:	39 4c 00 01          	cmp    %ecx,0x1(%eax,%eax,1)
    19a1:	d9 01                	flds   (%ecx)
    19a3:	5f                   	pop    %edi
    19a4:	5f                   	pop    %edi
    19a5:	55                   	push   %ebp
    19a6:	53                   	push   %ebx
    19a7:	45                   	inc    %ebp
    19a8:	5f                   	pop    %edi
    19a9:	50                   	push   %eax
    19aa:	4f                   	dec    %edi
    19ab:	53                   	push   %ebx
    19ac:	49                   	dec    %ecx
    19ad:	58                   	pop    %eax
    19ae:	5f                   	pop    %edi
    19af:	49                   	dec    %ecx
    19b0:	4d                   	dec    %ebp
    19b1:	50                   	push   %eax
    19b2:	4c                   	dec    %esp
    19b3:	49                   	dec    %ecx
    19b4:	43                   	inc    %ebx
    19b5:	49                   	dec    %ecx
    19b6:	54                   	push   %esp
    19b7:	4c                   	dec    %esp
    19b8:	59                   	pop    %ecx
    19b9:	20 31                	and    %dh,(%ecx)
    19bb:	00 01                	add    %al,(%ecx)
    19bd:	dd 01                	fldl   (%ecx)
    19bf:	5f                   	pop    %edi
    19c0:	5f                   	pop    %edi
    19c1:	55                   	push   %ebp
    19c2:	53                   	push   %ebx
    19c3:	45                   	inc    %ebp
    19c4:	5f                   	pop    %edi
    19c5:	50                   	push   %eax
    19c6:	4f                   	dec    %edi
    19c7:	53                   	push   %ebx
    19c8:	49                   	dec    %ecx
    19c9:	58                   	pop    %eax
    19ca:	20 31                	and    %dh,(%ecx)
    19cc:	00 01                	add    %al,(%ecx)
    19ce:	e1 01                	loope  19d1 <__FRAME_END__+0x142d>
    19d0:	5f                   	pop    %edi
    19d1:	5f                   	pop    %edi
    19d2:	55                   	push   %ebp
    19d3:	53                   	push   %ebx
    19d4:	45                   	inc    %ebp
    19d5:	5f                   	pop    %edi
    19d6:	50                   	push   %eax
    19d7:	4f                   	dec    %edi
    19d8:	53                   	push   %ebx
    19d9:	49                   	dec    %ecx
    19da:	58                   	pop    %eax
    19db:	32 20                	xor    (%eax),%ah
    19dd:	31 00                	xor    %eax,(%eax)
    19df:	01 e5                	add    %esp,%ebp
    19e1:	01 5f 5f             	add    %ebx,0x5f(%edi)
    19e4:	55                   	push   %ebp
    19e5:	53                   	push   %ebx
    19e6:	45                   	inc    %ebp
    19e7:	5f                   	pop    %edi
    19e8:	50                   	push   %eax
    19e9:	4f                   	dec    %edi
    19ea:	53                   	push   %ebx
    19eb:	49                   	dec    %ecx
    19ec:	58                   	pop    %eax
    19ed:	31 39                	xor    %edi,(%ecx)
    19ef:	39 33                	cmp    %esi,(%ebx)
    19f1:	30 39                	xor    %bh,(%ecx)
    19f3:	20 31                	and    %dh,(%ecx)
    19f5:	00 01                	add    %al,(%ecx)
    19f7:	e9 01 5f 5f 55       	jmp    555f78fd <_end+0x555f58e9>
    19fc:	53                   	push   %ebx
    19fd:	45                   	inc    %ebp
    19fe:	5f                   	pop    %edi
    19ff:	50                   	push   %eax
    1a00:	4f                   	dec    %edi
    1a01:	53                   	push   %ebx
    1a02:	49                   	dec    %ecx
    1a03:	58                   	pop    %eax
    1a04:	31 39                	xor    %edi,(%ecx)
    1a06:	39 35 30 36 20 31    	cmp    %esi,0x31203630
    1a0c:	00 01                	add    %al,(%ecx)
    1a0e:	ed                   	in     (%dx),%eax
    1a0f:	01 5f 5f             	add    %ebx,0x5f(%edi)
    1a12:	55                   	push   %ebp
    1a13:	53                   	push   %ebx
    1a14:	45                   	inc    %ebp
    1a15:	5f                   	pop    %edi
    1a16:	58                   	pop    %eax
    1a17:	4f                   	dec    %edi
    1a18:	50                   	push   %eax
    1a19:	45                   	inc    %ebp
    1a1a:	4e                   	dec    %esi
    1a1b:	32 4b 20             	xor    0x20(%ebx),%cl
    1a1e:	31 00                	xor    %eax,(%eax)
    1a20:	02 ee                	add    %dh,%ch
    1a22:	01 5f 5f             	add    %ebx,0x5f(%edi)
    1a25:	55                   	push   %ebp
    1a26:	53                   	push   %ebx
    1a27:	45                   	inc    %ebp
    1a28:	5f                   	pop    %edi
    1a29:	49                   	dec    %ecx
    1a2a:	53                   	push   %ebx
    1a2b:	4f                   	dec    %edi
    1a2c:	43                   	inc    %ebx
    1a2d:	39 35 00 01 ef 01    	cmp    %esi,0x1ef0100
    1a33:	5f                   	pop    %edi
    1a34:	5f                   	pop    %edi
    1a35:	55                   	push   %ebp
    1a36:	53                   	push   %ebx
    1a37:	45                   	inc    %ebp
    1a38:	5f                   	pop    %edi
    1a39:	49                   	dec    %ecx
    1a3a:	53                   	push   %ebx
    1a3b:	4f                   	dec    %edi
    1a3c:	43                   	inc    %ebx
    1a3d:	39 35 20 31 00 02    	cmp    %esi,0x2003120
    1a43:	f0 01 5f 5f          	lock add %ebx,0x5f(%edi)
    1a47:	55                   	push   %ebp
    1a48:	53                   	push   %ebx
    1a49:	45                   	inc    %ebp
    1a4a:	5f                   	pop    %edi
    1a4b:	49                   	dec    %ecx
    1a4c:	53                   	push   %ebx
    1a4d:	4f                   	dec    %edi
    1a4e:	43                   	inc    %ebx
    1a4f:	39 39                	cmp    %edi,(%ecx)
    1a51:	00 01                	add    %al,(%ecx)
    1a53:	f1                   	icebp  
    1a54:	01 5f 5f             	add    %ebx,0x5f(%edi)
    1a57:	55                   	push   %ebp
    1a58:	53                   	push   %ebx
    1a59:	45                   	inc    %ebp
    1a5a:	5f                   	pop    %edi
    1a5b:	49                   	dec    %ecx
    1a5c:	53                   	push   %ebx
    1a5d:	4f                   	dec    %edi
    1a5e:	43                   	inc    %ebx
    1a5f:	39 39                	cmp    %edi,(%ecx)
    1a61:	20 31                	and    %dh,(%ecx)
    1a63:	00 01                	add    %al,(%ecx)
    1a65:	f5                   	cmc    
    1a66:	01 5f 5f             	add    %ebx,0x5f(%edi)
    1a69:	55                   	push   %ebp
    1a6a:	53                   	push   %ebx
    1a6b:	45                   	inc    %ebp
    1a6c:	5f                   	pop    %edi
    1a6d:	58                   	pop    %eax
    1a6e:	4f                   	dec    %edi
    1a6f:	50                   	push   %eax
    1a70:	45                   	inc    %ebp
    1a71:	4e                   	dec    %esi
    1a72:	32 4b 38             	xor    0x38(%ebx),%cl
    1a75:	20 31                	and    %dh,(%ecx)
    1a77:	00 02                	add    %al,(%edx)
    1a79:	f6 01 5f             	testb  $0x5f,(%ecx)
    1a7c:	41                   	inc    %ecx
    1a7d:	54                   	push   %esp
    1a7e:	46                   	inc    %esi
    1a7f:	49                   	dec    %ecx
    1a80:	4c                   	dec    %esp
    1a81:	45                   	inc    %ebp
    1a82:	5f                   	pop    %edi
    1a83:	53                   	push   %ebx
    1a84:	4f                   	dec    %edi
    1a85:	55                   	push   %ebp
    1a86:	52                   	push   %edx
    1a87:	43                   	inc    %ebx
    1a88:	45                   	inc    %ebp
    1a89:	00 01                	add    %al,(%ecx)
    1a8b:	f7 01 5f 41 54 46    	testl  $0x4654415f,(%ecx)
    1a91:	49                   	dec    %ecx
    1a92:	4c                   	dec    %esp
    1a93:	45                   	inc    %ebp
    1a94:	5f                   	pop    %edi
    1a95:	53                   	push   %ebx
    1a96:	4f                   	dec    %edi
    1a97:	55                   	push   %ebp
    1a98:	52                   	push   %edx
    1a99:	43                   	inc    %ebx
    1a9a:	45                   	inc    %ebp
    1a9b:	20 31                	and    %dh,(%ecx)
    1a9d:	00 01                	add    %al,(%ecx)
    1a9f:	a1 02 5f 5f 55       	mov    0x555f5f02,%eax
    1aa4:	53                   	push   %ebx
    1aa5:	45                   	inc    %ebp
    1aa6:	5f                   	pop    %edi
    1aa7:	4d                   	dec    %ebp
    1aa8:	49                   	dec    %ecx
    1aa9:	53                   	push   %ebx
    1aaa:	43                   	inc    %ebx
    1aab:	20 31                	and    %dh,(%ecx)
    1aad:	00 01                	add    %al,(%ecx)
    1aaf:	a5                   	movsl  %ds:(%esi),%es:(%edi)
    1ab0:	02 5f 5f             	add    0x5f(%edi),%bl
    1ab3:	55                   	push   %ebp
    1ab4:	53                   	push   %ebx
    1ab5:	45                   	inc    %ebp
    1ab6:	5f                   	pop    %edi
    1ab7:	42                   	inc    %edx
    1ab8:	53                   	push   %ebx
    1ab9:	44                   	inc    %esp
    1aba:	20 31                	and    %dh,(%ecx)
    1abc:	00 01                	add    %al,(%ecx)
    1abe:	a9 02 5f 5f 55       	test   $0x555f5f02,%eax
    1ac3:	53                   	push   %ebx
    1ac4:	45                   	inc    %ebp
    1ac5:	5f                   	pop    %edi
    1ac6:	53                   	push   %ebx
    1ac7:	56                   	push   %esi
    1ac8:	49                   	dec    %ecx
    1ac9:	44                   	inc    %esp
    1aca:	20 31                	and    %dh,(%ecx)
    1acc:	00 01                	add    %al,(%ecx)
    1ace:	ad                   	lods   %ds:(%esi),%eax
    1acf:	02 5f 5f             	add    0x5f(%edi),%bl
    1ad2:	55                   	push   %ebp
    1ad3:	53                   	push   %ebx
    1ad4:	45                   	inc    %ebp
    1ad5:	5f                   	pop    %edi
    1ad6:	41                   	inc    %ecx
    1ad7:	54                   	push   %esp
    1ad8:	46                   	inc    %esi
    1ad9:	49                   	dec    %ecx
    1ada:	4c                   	dec    %esp
    1adb:	45                   	inc    %ebp
    1adc:	20 31                	and    %dh,(%ecx)
    1ade:	00 01                	add    %al,(%ecx)
    1ae0:	c0 02 5f             	rolb   $0x5f,(%edx)
    1ae3:	5f                   	pop    %edi
    1ae4:	55                   	push   %ebp
    1ae5:	53                   	push   %ebx
    1ae6:	45                   	inc    %ebp
    1ae7:	5f                   	pop    %edi
    1ae8:	46                   	inc    %esi
    1ae9:	4f                   	dec    %edi
    1aea:	52                   	push   %edx
    1aeb:	54                   	push   %esp
    1aec:	49                   	dec    %ecx
    1aed:	46                   	inc    %esi
    1aee:	59                   	pop    %ecx
    1aef:	5f                   	pop    %edi
    1af0:	4c                   	dec    %esp
    1af1:	45                   	inc    %ebp
    1af2:	56                   	push   %esi
    1af3:	45                   	inc    %ebp
    1af4:	4c                   	dec    %esp
    1af5:	20 30                	and    %dh,(%eax)
    1af7:	00 03                	add    %al,(%ebx)
    1af9:	c4 02                	les    (%edx),%eax
    1afb:	04 01                	add    $0x1,%al
    1afd:	18 5f 50             	sbb    %bl,0x50(%edi)
    1b00:	52                   	push   %edx
    1b01:	45                   	inc    %ebp
    1b02:	44                   	inc    %esp
    1b03:	45                   	inc    %ebp
    1b04:	46                   	inc    %esi
    1b05:	53                   	push   %ebx
    1b06:	5f                   	pop    %edi
    1b07:	48                   	dec    %eax
    1b08:	20 00                	and    %al,(%eax)
    1b0a:	01 1b                	add    %ebx,(%ebx)
    1b0c:	5f                   	pop    %edi
    1b0d:	5f                   	pop    %edi
    1b0e:	53                   	push   %ebx
    1b0f:	54                   	push   %esp
    1b10:	44                   	inc    %esp
    1b11:	43                   	inc    %ebx
    1b12:	5f                   	pop    %edi
    1b13:	49                   	dec    %ecx
    1b14:	45                   	inc    %ebp
    1b15:	43                   	inc    %ebx
    1b16:	5f                   	pop    %edi
    1b17:	35 35 39 5f 5f       	xor    $0x5f5f3935,%eax
    1b1c:	20 31                	and    %dh,(%ecx)
    1b1e:	00 01                	add    %al,(%ecx)
    1b20:	1c 5f                	sbb    $0x5f,%al
    1b22:	5f                   	pop    %edi
    1b23:	53                   	push   %ebx
    1b24:	54                   	push   %esp
    1b25:	44                   	inc    %esp
    1b26:	43                   	inc    %ebx
    1b27:	5f                   	pop    %edi
    1b28:	49                   	dec    %ecx
    1b29:	45                   	inc    %ebp
    1b2a:	43                   	inc    %ebx
    1b2b:	5f                   	pop    %edi
    1b2c:	35 35 39 5f 43       	xor    $0x435f3935,%eax
    1b31:	4f                   	dec    %edi
    1b32:	4d                   	dec    %ebp
    1b33:	50                   	push   %eax
    1b34:	4c                   	dec    %esp
    1b35:	45                   	inc    %ebp
    1b36:	58                   	pop    %eax
    1b37:	5f                   	pop    %edi
    1b38:	5f                   	pop    %edi
    1b39:	20 31                	and    %dh,(%ecx)
    1b3b:	00 04 01             	add    %al,(%ecx,%eax,1)
    1b3e:	c7 02 5f 5f 53 54    	movl   $0x54535f5f,(%edx)
    1b44:	44                   	inc    %esp
    1b45:	43                   	inc    %ebx
    1b46:	5f                   	pop    %edi
    1b47:	49                   	dec    %ecx
    1b48:	53                   	push   %ebx
    1b49:	4f                   	dec    %edi
    1b4a:	5f                   	pop    %edi
    1b4b:	31 30                	xor    %esi,(%eax)
    1b4d:	36                   	ss
    1b4e:	34 36                	xor    $0x36,%al
    1b50:	5f                   	pop    %edi
    1b51:	5f                   	pop    %edi
    1b52:	20 32                	and    %dh,(%edx)
    1b54:	30 30                	xor    %dh,(%eax)
    1b56:	30 30                	xor    %dh,(%eax)
    1b58:	39 4c 00 02          	cmp    %ecx,0x2(%eax,%eax,1)
    1b5c:	cf                   	iret   
    1b5d:	02 5f 5f             	add    0x5f(%edi),%bl
    1b60:	47                   	inc    %edi
    1b61:	4e                   	dec    %esi
    1b62:	55                   	push   %ebp
    1b63:	5f                   	pop    %edi
    1b64:	4c                   	dec    %esp
    1b65:	49                   	dec    %ecx
    1b66:	42                   	inc    %edx
    1b67:	52                   	push   %edx
    1b68:	41                   	inc    %ecx
    1b69:	52                   	push   %edx
    1b6a:	59                   	pop    %ecx
    1b6b:	5f                   	pop    %edi
    1b6c:	5f                   	pop    %edi
    1b6d:	00 01                	add    %al,(%ecx)
    1b6f:	d0 02                	rolb   (%edx)
    1b71:	5f                   	pop    %edi
    1b72:	5f                   	pop    %edi
    1b73:	47                   	inc    %edi
    1b74:	4e                   	dec    %esi
    1b75:	55                   	push   %ebp
    1b76:	5f                   	pop    %edi
    1b77:	4c                   	dec    %esp
    1b78:	49                   	dec    %ecx
    1b79:	42                   	inc    %edx
    1b7a:	52                   	push   %edx
    1b7b:	41                   	inc    %ecx
    1b7c:	52                   	push   %edx
    1b7d:	59                   	pop    %ecx
    1b7e:	5f                   	pop    %edi
    1b7f:	5f                   	pop    %edi
    1b80:	20 36                	and    %dh,(%esi)
    1b82:	00 01                	add    %al,(%ecx)
    1b84:	d4 02                	aam    $0x2
    1b86:	5f                   	pop    %edi
    1b87:	5f                   	pop    %edi
    1b88:	47                   	inc    %edi
    1b89:	4c                   	dec    %esp
    1b8a:	49                   	dec    %ecx
    1b8b:	42                   	inc    %edx
    1b8c:	43                   	inc    %ebx
    1b8d:	5f                   	pop    %edi
    1b8e:	5f                   	pop    %edi
    1b8f:	20 32                	and    %dh,(%edx)
    1b91:	00 01                	add    %al,(%ecx)
    1b93:	d5 02                	aad    $0x2
    1b95:	5f                   	pop    %edi
    1b96:	5f                   	pop    %edi
    1b97:	47                   	inc    %edi
    1b98:	4c                   	dec    %esp
    1b99:	49                   	dec    %ecx
    1b9a:	42                   	inc    %edx
    1b9b:	43                   	inc    %ebx
    1b9c:	5f                   	pop    %edi
    1b9d:	4d                   	dec    %ebp
    1b9e:	49                   	dec    %ecx
    1b9f:	4e                   	dec    %esi
    1ba0:	4f                   	dec    %edi
    1ba1:	52                   	push   %edx
    1ba2:	5f                   	pop    %edi
    1ba3:	5f                   	pop    %edi
    1ba4:	20 31                	and    %dh,(%ecx)
    1ba6:	35 00 01 d7 02       	xor    $0x2d70100,%eax
    1bab:	5f                   	pop    %edi
    1bac:	5f                   	pop    %edi
    1bad:	47                   	inc    %edi
    1bae:	4c                   	dec    %esp
    1baf:	49                   	dec    %ecx
    1bb0:	42                   	inc    %edx
    1bb1:	43                   	inc    %ebx
    1bb2:	5f                   	pop    %edi
    1bb3:	50                   	push   %eax
    1bb4:	52                   	push   %edx
    1bb5:	45                   	inc    %ebp
    1bb6:	52                   	push   %edx
    1bb7:	45                   	inc    %ebp
    1bb8:	51                   	push   %ecx
    1bb9:	28 6d 61             	sub    %ch,0x61(%ebp)
    1bbc:	6a 2c                	push   $0x2c
    1bbe:	6d                   	insl   (%dx),%es:(%edi)
    1bbf:	69 6e 29 20 28 28 5f 	imul   $0x5f282820,0x29(%esi),%ebp
    1bc6:	5f                   	pop    %edi
    1bc7:	47                   	inc    %edi
    1bc8:	4c                   	dec    %esp
    1bc9:	49                   	dec    %ecx
    1bca:	42                   	inc    %edx
    1bcb:	43                   	inc    %ebx
    1bcc:	5f                   	pop    %edi
    1bcd:	5f                   	pop    %edi
    1bce:	20 3c 3c             	and    %bh,(%esp,%edi,1)
    1bd1:	20 31                	and    %dh,(%ecx)
    1bd3:	36 29 20             	sub    %esp,%ss:(%eax)
    1bd6:	2b 20                	sub    (%eax),%esp
    1bd8:	5f                   	pop    %edi
    1bd9:	5f                   	pop    %edi
    1bda:	47                   	inc    %edi
    1bdb:	4c                   	dec    %esp
    1bdc:	49                   	dec    %ecx
    1bdd:	42                   	inc    %edx
    1bde:	43                   	inc    %ebx
    1bdf:	5f                   	pop    %edi
    1be0:	4d                   	dec    %ebp
    1be1:	49                   	dec    %ecx
    1be2:	4e                   	dec    %esi
    1be3:	4f                   	dec    %edi
    1be4:	52                   	push   %edx
    1be5:	5f                   	pop    %edi
    1be6:	5f                   	pop    %edi
    1be7:	20 3e                	and    %bh,(%esi)
    1be9:	3d 20 28 28 6d       	cmp    $0x6d282820,%eax
    1bee:	61                   	popa   
    1bef:	6a 29                	push   $0x29
    1bf1:	20 3c 3c             	and    %bh,(%esp,%edi,1)
    1bf4:	20 31                	and    %dh,(%ecx)
    1bf6:	36 29 20             	sub    %esp,%ss:(%eax)
    1bf9:	2b 20                	sub    (%eax),%esp
    1bfb:	28 6d 69             	sub    %ch,0x69(%ebp)
    1bfe:	6e                   	outsb  %ds:(%esi),(%dx)
    1bff:	29 29                	sub    %ebp,(%ecx)
    1c01:	00 01                	add    %al,(%ecx)
    1c03:	df 02                	fild   (%edx)
    1c05:	5f                   	pop    %edi
    1c06:	5f                   	pop    %edi
    1c07:	47                   	inc    %edi
    1c08:	4c                   	dec    %esp
    1c09:	49                   	dec    %ecx
    1c0a:	42                   	inc    %edx
    1c0b:	43                   	inc    %ebx
    1c0c:	5f                   	pop    %edi
    1c0d:	48                   	dec    %eax
    1c0e:	41                   	inc    %ecx
    1c0f:	56                   	push   %esi
    1c10:	45                   	inc    %ebp
    1c11:	5f                   	pop    %edi
    1c12:	4c                   	dec    %esp
    1c13:	4f                   	dec    %edi
    1c14:	4e                   	dec    %esi
    1c15:	47                   	inc    %edi
    1c16:	5f                   	pop    %edi
    1c17:	4c                   	dec    %esp
    1c18:	4f                   	dec    %edi
    1c19:	4e                   	dec    %esi
    1c1a:	47                   	inc    %edi
    1c1b:	20 31                	and    %dh,(%ecx)
    1c1d:	00 03                	add    %al,(%ebx)
    1c1f:	e5 02                	in     $0x2,%eax
    1c21:	05 01 15 5f 53       	add    $0x535f1501,%eax
    1c26:	59                   	pop    %ecx
    1c27:	53                   	push   %ebx
    1c28:	5f                   	pop    %edi
    1c29:	43                   	inc    %ebx
    1c2a:	44                   	inc    %esp
    1c2b:	45                   	inc    %ebp
    1c2c:	46                   	inc    %esi
    1c2d:	53                   	push   %ebx
    1c2e:	5f                   	pop    %edi
    1c2f:	48                   	dec    %eax
    1c30:	20 31                	and    %dh,(%ecx)
    1c32:	00 02                	add    %al,(%edx)
    1c34:	24 5f                	and    $0x5f,%al
    1c36:	5f                   	pop    %edi
    1c37:	50                   	push   %eax
    1c38:	00 02                	add    %al,(%edx)
    1c3a:	25 5f 5f 50 4d       	and    $0x4d505f5f,%eax
    1c3f:	54                   	push   %esp
    1c40:	00 01                	add    %al,(%ecx)
    1c42:	2c 5f                	sub    $0x5f,%al
    1c44:	5f                   	pop    %edi
    1c45:	4c                   	dec    %esp
    1c46:	45                   	inc    %ebp
    1c47:	41                   	inc    %ecx
    1c48:	46                   	inc    %esi
    1c49:	20 2c 20             	and    %ch,(%eax,%eiz,1)
    1c4c:	5f                   	pop    %edi
    1c4d:	5f                   	pop    %edi
    1c4e:	6c                   	insb   (%dx),%es:(%edi)
    1c4f:	65                   	gs
    1c50:	61                   	popa   
    1c51:	66 5f                	pop    %di
    1c53:	5f                   	pop    %edi
    1c54:	00 01                	add    %al,(%ecx)
    1c56:	2d 5f 5f 4c 45       	sub    $0x454c5f5f,%eax
    1c5b:	41                   	inc    %ecx
    1c5c:	46                   	inc    %esi
    1c5d:	5f                   	pop    %edi
    1c5e:	41                   	inc    %ecx
    1c5f:	54                   	push   %esp
    1c60:	54                   	push   %esp
    1c61:	52                   	push   %edx
    1c62:	20 5f 5f             	and    %bl,0x5f(%edi)
    1c65:	61                   	popa   
    1c66:	74 74                	je     1cdc <__FRAME_END__+0x1738>
    1c68:	72 69                	jb     1cd3 <__FRAME_END__+0x172f>
    1c6a:	62 75 74             	bound  %esi,0x74(%ebp)
    1c6d:	65                   	gs
    1c6e:	5f                   	pop    %edi
    1c6f:	5f                   	pop    %edi
    1c70:	20 28                	and    %ch,(%eax)
    1c72:	28 5f 5f             	sub    %bl,0x5f(%edi)
    1c75:	6c                   	insb   (%dx),%es:(%edi)
    1c76:	65                   	gs
    1c77:	61                   	popa   
    1c78:	66 5f                	pop    %di
    1c7a:	5f                   	pop    %edi
    1c7b:	29 29                	sub    %ebp,(%ecx)
    1c7d:	00 01                	add    %al,(%ecx)
    1c7f:	39 5f 5f             	cmp    %ebx,0x5f(%edi)
    1c82:	54                   	push   %esp
    1c83:	48                   	dec    %eax
    1c84:	52                   	push   %edx
    1c85:	4f                   	dec    %edi
    1c86:	57                   	push   %edi
    1c87:	20 5f 5f             	and    %bl,0x5f(%edi)
    1c8a:	61                   	popa   
    1c8b:	74 74                	je     1d01 <__FRAME_END__+0x175d>
    1c8d:	72 69                	jb     1cf8 <__FRAME_END__+0x1754>
    1c8f:	62 75 74             	bound  %esi,0x74(%ebp)
    1c92:	65                   	gs
    1c93:	5f                   	pop    %edi
    1c94:	5f                   	pop    %edi
    1c95:	20 28                	and    %ch,(%eax)
    1c97:	28 5f 5f             	sub    %bl,0x5f(%edi)
    1c9a:	6e                   	outsb  %ds:(%esi),(%dx)
    1c9b:	6f                   	outsl  %ds:(%esi),(%dx)
    1c9c:	74 68                	je     1d06 <__FRAME_END__+0x1762>
    1c9e:	72 6f                	jb     1d0f <__FRAME_END__+0x176b>
    1ca0:	77 5f                	ja     1d01 <__FRAME_END__+0x175d>
    1ca2:	5f                   	pop    %edi
    1ca3:	20 5f 5f             	and    %bl,0x5f(%edi)
    1ca6:	4c                   	dec    %esp
    1ca7:	45                   	inc    %ebp
    1ca8:	41                   	inc    %ecx
    1ca9:	46                   	inc    %esi
    1caa:	29 29                	sub    %ebp,(%ecx)
    1cac:	00 01                	add    %al,(%ecx)
    1cae:	3a 5f 5f             	cmp    0x5f(%edi),%bl
    1cb1:	54                   	push   %esp
    1cb2:	48                   	dec    %eax
    1cb3:	52                   	push   %edx
    1cb4:	4f                   	dec    %edi
    1cb5:	57                   	push   %edi
    1cb6:	4e                   	dec    %esi
    1cb7:	4c                   	dec    %esp
    1cb8:	20 5f 5f             	and    %bl,0x5f(%edi)
    1cbb:	61                   	popa   
    1cbc:	74 74                	je     1d32 <__FRAME_END__+0x178e>
    1cbe:	72 69                	jb     1d29 <__FRAME_END__+0x1785>
    1cc0:	62 75 74             	bound  %esi,0x74(%ebp)
    1cc3:	65                   	gs
    1cc4:	5f                   	pop    %edi
    1cc5:	5f                   	pop    %edi
    1cc6:	20 28                	and    %ch,(%eax)
    1cc8:	28 5f 5f             	sub    %bl,0x5f(%edi)
    1ccb:	6e                   	outsb  %ds:(%esi),(%dx)
    1ccc:	6f                   	outsl  %ds:(%esi),(%dx)
    1ccd:	74 68                	je     1d37 <__FRAME_END__+0x1793>
    1ccf:	72 6f                	jb     1d40 <__FRAME_END__+0x179c>
    1cd1:	77 5f                	ja     1d32 <__FRAME_END__+0x178e>
    1cd3:	5f                   	pop    %edi
    1cd4:	29 29                	sub    %ebp,(%ecx)
    1cd6:	00 01                	add    %al,(%ecx)
    1cd8:	3b 5f 5f             	cmp    0x5f(%edi),%ebx
    1cdb:	4e                   	dec    %esi
    1cdc:	54                   	push   %esp
    1cdd:	48                   	dec    %eax
    1cde:	28 66 63             	sub    %ah,0x63(%esi)
    1ce1:	74 29                	je     1d0c <__FRAME_END__+0x1768>
    1ce3:	20 5f 5f             	and    %bl,0x5f(%edi)
    1ce6:	61                   	popa   
    1ce7:	74 74                	je     1d5d <__FRAME_END__+0x17b9>
    1ce9:	72 69                	jb     1d54 <__FRAME_END__+0x17b0>
    1ceb:	62 75 74             	bound  %esi,0x74(%ebp)
    1cee:	65                   	gs
    1cef:	5f                   	pop    %edi
    1cf0:	5f                   	pop    %edi
    1cf1:	20 28                	and    %ch,(%eax)
    1cf3:	28 5f 5f             	sub    %bl,0x5f(%edi)
    1cf6:	6e                   	outsb  %ds:(%esi),(%dx)
    1cf7:	6f                   	outsl  %ds:(%esi),(%dx)
    1cf8:	74 68                	je     1d62 <__FRAME_END__+0x17be>
    1cfa:	72 6f                	jb     1d6b <__FRAME_END__+0x17c7>
    1cfc:	77 5f                	ja     1d5d <__FRAME_END__+0x17b9>
    1cfe:	5f                   	pop    %edi
    1cff:	20 5f 5f             	and    %bl,0x5f(%edi)
    1d02:	4c                   	dec    %esp
    1d03:	45                   	inc    %ebp
    1d04:	41                   	inc    %ecx
    1d05:	46                   	inc    %esi
    1d06:	29 29                	sub    %ebp,(%ecx)
    1d08:	20 66 63             	and    %ah,0x63(%esi)
    1d0b:	74 00                	je     1d0d <__FRAME_END__+0x1769>
    1d0d:	01 58 5f             	add    %ebx,0x5f(%eax)
    1d10:	5f                   	pop    %edi
    1d11:	50                   	push   %eax
    1d12:	28 61 72             	sub    %ah,0x72(%ecx)
    1d15:	67 73 29             	addr16 jae 1d41 <__FRAME_END__+0x179d>
    1d18:	20 61 72             	and    %ah,0x72(%ecx)
    1d1b:	67 73 00             	addr16 jae 1d1e <__FRAME_END__+0x177a>
    1d1e:	01 59 5f             	add    %ebx,0x5f(%ecx)
    1d21:	5f                   	pop    %edi
    1d22:	50                   	push   %eax
    1d23:	4d                   	dec    %ebp
    1d24:	54                   	push   %esp
    1d25:	28 61 72             	sub    %ah,0x72(%ecx)
    1d28:	67 73 29             	addr16 jae 1d54 <__FRAME_END__+0x17b0>
    1d2b:	20 61 72             	and    %ah,0x72(%ecx)
    1d2e:	67 73 00             	addr16 jae 1d31 <__FRAME_END__+0x178d>
    1d31:	01 5e 5f             	add    %ebx,0x5f(%esi)
    1d34:	5f                   	pop    %edi
    1d35:	43                   	inc    %ebx
    1d36:	4f                   	dec    %edi
    1d37:	4e                   	dec    %esi
    1d38:	43                   	inc    %ebx
    1d39:	41                   	inc    %ecx
    1d3a:	54                   	push   %esp
    1d3b:	28 78 2c             	sub    %bh,0x2c(%eax)
    1d3e:	79 29                	jns    1d69 <__FRAME_END__+0x17c5>
    1d40:	20 78 20             	and    %bh,0x20(%eax)
    1d43:	23 23                	and    (%ebx),%esp
    1d45:	20 79 00             	and    %bh,0x0(%ecx)
    1d48:	01 5f 5f             	add    %ebx,0x5f(%edi)
    1d4b:	5f                   	pop    %edi
    1d4c:	53                   	push   %ebx
    1d4d:	54                   	push   %esp
    1d4e:	52                   	push   %edx
    1d4f:	49                   	dec    %ecx
    1d50:	4e                   	dec    %esi
    1d51:	47                   	inc    %edi
    1d52:	28 78 29             	sub    %bh,0x29(%eax)
    1d55:	20 23                	and    %ah,(%ebx)
    1d57:	78 00                	js     1d59 <__FRAME_END__+0x17b5>
    1d59:	01 62 5f             	add    %esp,0x5f(%edx)
    1d5c:	5f                   	pop    %edi
    1d5d:	70 74                	jo     1dd3 <__FRAME_END__+0x182f>
    1d5f:	72 5f                	jb     1dc0 <__FRAME_END__+0x181c>
    1d61:	74 20                	je     1d83 <__FRAME_END__+0x17df>
    1d63:	76 6f                	jbe    1dd4 <__FRAME_END__+0x1830>
    1d65:	69 64 20 2a 00 01 63 	imul   $0x5f630100,0x2a(%eax,%eiz,1),%esp
    1d6c:	5f 
    1d6d:	5f                   	pop    %edi
    1d6e:	6c                   	insb   (%dx),%es:(%edi)
    1d6f:	6f                   	outsl  %ds:(%esi),(%dx)
    1d70:	6e                   	outsb  %ds:(%esi),(%dx)
    1d71:	67 5f                	addr16 pop %edi
    1d73:	64 6f                	outsl  %fs:(%esi),(%dx)
    1d75:	75 62                	jne    1dd9 <__FRAME_END__+0x1835>
    1d77:	6c                   	insb   (%dx),%es:(%edi)
    1d78:	65                   	gs
    1d79:	5f                   	pop    %edi
    1d7a:	74 20                	je     1d9c <__FRAME_END__+0x17f8>
    1d7c:	6c                   	insb   (%dx),%es:(%edi)
    1d7d:	6f                   	outsl  %ds:(%esi),(%dx)
    1d7e:	6e                   	outsb  %ds:(%esi),(%dx)
    1d7f:	67 20 64 6f          	and    %ah,0x6f(%si)
    1d83:	75 62                	jne    1de7 <__FRAME_END__+0x1843>
    1d85:	6c                   	insb   (%dx),%es:(%edi)
    1d86:	65 00 01             	add    %al,%gs:(%ecx)
    1d89:	6b 5f 5f 42          	imul   $0x42,0x5f(%edi),%ebx
    1d8d:	45                   	inc    %ebp
    1d8e:	47                   	inc    %edi
    1d8f:	49                   	dec    %ecx
    1d90:	4e                   	dec    %esi
    1d91:	5f                   	pop    %edi
    1d92:	44                   	inc    %esp
    1d93:	45                   	inc    %ebp
    1d94:	43                   	inc    %ebx
    1d95:	4c                   	dec    %esp
    1d96:	53                   	push   %ebx
    1d97:	20 00                	and    %al,(%eax)
    1d99:	01 6c 5f 5f          	add    %ebp,0x5f(%edi,%ebx,2)
    1d9d:	45                   	inc    %ebp
    1d9e:	4e                   	dec    %esi
    1d9f:	44                   	inc    %esp
    1da0:	5f                   	pop    %edi
    1da1:	44                   	inc    %esp
    1da2:	45                   	inc    %ebp
    1da3:	43                   	inc    %ebx
    1da4:	4c                   	dec    %esp
    1da5:	53                   	push   %ebx
    1da6:	20 00                	and    %al,(%eax)
    1da8:	01 80 01 5f 5f 42    	add    %eax,0x425f5f01(%eax)
    1dae:	45                   	inc    %ebp
    1daf:	47                   	inc    %edi
    1db0:	49                   	dec    %ecx
    1db1:	4e                   	dec    %esi
    1db2:	5f                   	pop    %edi
    1db3:	4e                   	dec    %esi
    1db4:	41                   	inc    %ecx
    1db5:	4d                   	dec    %ebp
    1db6:	45                   	inc    %ebp
    1db7:	53                   	push   %ebx
    1db8:	50                   	push   %eax
    1db9:	41                   	inc    %ecx
    1dba:	43                   	inc    %ebx
    1dbb:	45                   	inc    %ebp
    1dbc:	5f                   	pop    %edi
    1dbd:	53                   	push   %ebx
    1dbe:	54                   	push   %esp
    1dbf:	44                   	inc    %esp
    1dc0:	20 00                	and    %al,(%eax)
    1dc2:	01 81 01 5f 5f 45    	add    %eax,0x455f5f01(%ecx)
    1dc8:	4e                   	dec    %esi
    1dc9:	44                   	inc    %esp
    1dca:	5f                   	pop    %edi
    1dcb:	4e                   	dec    %esi
    1dcc:	41                   	inc    %ecx
    1dcd:	4d                   	dec    %ebp
    1dce:	45                   	inc    %ebp
    1dcf:	53                   	push   %ebx
    1dd0:	50                   	push   %eax
    1dd1:	41                   	inc    %ecx
    1dd2:	43                   	inc    %ebx
    1dd3:	45                   	inc    %ebp
    1dd4:	5f                   	pop    %edi
    1dd5:	53                   	push   %ebx
    1dd6:	54                   	push   %esp
    1dd7:	44                   	inc    %esp
    1dd8:	20 00                	and    %al,(%eax)
    1dda:	01 82 01 5f 5f 55    	add    %eax,0x555f5f01(%edx)
    1de0:	53                   	push   %ebx
    1de1:	49                   	dec    %ecx
    1de2:	4e                   	dec    %esi
    1de3:	47                   	inc    %edi
    1de4:	5f                   	pop    %edi
    1de5:	4e                   	dec    %esi
    1de6:	41                   	inc    %ecx
    1de7:	4d                   	dec    %ebp
    1de8:	45                   	inc    %ebp
    1de9:	53                   	push   %ebx
    1dea:	50                   	push   %eax
    1deb:	41                   	inc    %ecx
    1dec:	43                   	inc    %ebx
    1ded:	45                   	inc    %ebp
    1dee:	5f                   	pop    %edi
    1def:	53                   	push   %ebx
    1df0:	54                   	push   %esp
    1df1:	44                   	inc    %esp
    1df2:	28 6e 61             	sub    %ch,0x61(%esi)
    1df5:	6d                   	insl   (%dx),%es:(%edi)
    1df6:	65 29 20             	sub    %esp,%gs:(%eax)
    1df9:	00 01                	add    %al,(%ecx)
    1dfb:	83 01 5f             	addl   $0x5f,(%ecx)
    1dfe:	5f                   	pop    %edi
    1dff:	42                   	inc    %edx
    1e00:	45                   	inc    %ebp
    1e01:	47                   	inc    %edi
    1e02:	49                   	dec    %ecx
    1e03:	4e                   	dec    %esi
    1e04:	5f                   	pop    %edi
    1e05:	4e                   	dec    %esi
    1e06:	41                   	inc    %ecx
    1e07:	4d                   	dec    %ebp
    1e08:	45                   	inc    %ebp
    1e09:	53                   	push   %ebx
    1e0a:	50                   	push   %eax
    1e0b:	41                   	inc    %ecx
    1e0c:	43                   	inc    %ebx
    1e0d:	45                   	inc    %ebp
    1e0e:	5f                   	pop    %edi
    1e0f:	43                   	inc    %ebx
    1e10:	39 39                	cmp    %edi,(%ecx)
    1e12:	20 00                	and    %al,(%eax)
    1e14:	01 84 01 5f 5f 45 4e 	add    %eax,0x4e455f5f(%ecx,%eax,1)
    1e1b:	44                   	inc    %esp
    1e1c:	5f                   	pop    %edi
    1e1d:	4e                   	dec    %esi
    1e1e:	41                   	inc    %ecx
    1e1f:	4d                   	dec    %ebp
    1e20:	45                   	inc    %ebp
    1e21:	53                   	push   %ebx
    1e22:	50                   	push   %eax
    1e23:	41                   	inc    %ecx
    1e24:	43                   	inc    %ebx
    1e25:	45                   	inc    %ebp
    1e26:	5f                   	pop    %edi
    1e27:	43                   	inc    %ebx
    1e28:	39 39                	cmp    %edi,(%ecx)
    1e2a:	20 00                	and    %al,(%eax)
    1e2c:	01 85 01 5f 5f 55    	add    %eax,0x555f5f01(%ebp)
    1e32:	53                   	push   %ebx
    1e33:	49                   	dec    %ecx
    1e34:	4e                   	dec    %esi
    1e35:	47                   	inc    %edi
    1e36:	5f                   	pop    %edi
    1e37:	4e                   	dec    %esi
    1e38:	41                   	inc    %ecx
    1e39:	4d                   	dec    %ebp
    1e3a:	45                   	inc    %ebp
    1e3b:	53                   	push   %ebx
    1e3c:	50                   	push   %eax
    1e3d:	41                   	inc    %ecx
    1e3e:	43                   	inc    %ebx
    1e3f:	45                   	inc    %ebp
    1e40:	5f                   	pop    %edi
    1e41:	43                   	inc    %ebx
    1e42:	39 39                	cmp    %edi,(%ecx)
    1e44:	28 6e 61             	sub    %ch,0x61(%esi)
    1e47:	6d                   	insl   (%dx),%es:(%edi)
    1e48:	65 29 20             	sub    %esp,%gs:(%eax)
    1e4b:	00 01                	add    %al,(%ecx)
    1e4d:	8b 01                	mov    (%ecx),%eax
    1e4f:	5f                   	pop    %edi
    1e50:	5f                   	pop    %edi
    1e51:	62 6f 75             	bound  %ebp,0x75(%edi)
    1e54:	6e                   	outsb  %ds:(%esi),(%dx)
    1e55:	64 65 64 20 00       	fs gs and %al,%fs:%gs:(%eax)
    1e5a:	01 8c 01 5f 5f 75 6e 	add    %ecx,0x6e755f5f(%ecx,%eax,1)
    1e61:	62 6f 75             	bound  %ebp,0x75(%edi)
    1e64:	6e                   	outsb  %ds:(%esi),(%dx)
    1e65:	64 65 64 20 00       	fs gs and %al,%fs:%gs:(%eax)
    1e6a:	01 8d 01 5f 5f 70    	add    %ecx,0x705f5f01(%ebp)
    1e70:	74 72                	je     1ee4 <__FRAME_END__+0x1940>
    1e72:	76 61                	jbe    1ed5 <__FRAME_END__+0x1931>
    1e74:	6c                   	insb   (%dx),%es:(%edi)
    1e75:	75 65                	jne    1edc <__FRAME_END__+0x1938>
    1e77:	20 00                	and    %al,(%eax)
    1e79:	01 92 01 5f 5f 62    	add    %edx,0x625f5f01(%edx)
    1e7f:	6f                   	outsl  %ds:(%esi),(%dx)
    1e80:	73 28                	jae    1eaa <__FRAME_END__+0x1906>
    1e82:	70 74                	jo     1ef8 <__FRAME_END__+0x1954>
    1e84:	72 29                	jb     1eaf <__FRAME_END__+0x190b>
    1e86:	20 5f 5f             	and    %bl,0x5f(%edi)
    1e89:	62 75 69             	bound  %esi,0x69(%ebp)
    1e8c:	6c                   	insb   (%dx),%es:(%edi)
    1e8d:	74 69                	je     1ef8 <__FRAME_END__+0x1954>
    1e8f:	6e                   	outsb  %ds:(%esi),(%dx)
    1e90:	5f                   	pop    %edi
    1e91:	6f                   	outsl  %ds:(%esi),(%dx)
    1e92:	62 6a 65             	bound  %ebp,0x65(%edx)
    1e95:	63 74 5f 73          	arpl   %si,0x73(%edi,%ebx,2)
    1e99:	69 7a 65 20 28 70 74 	imul   $0x74702820,0x65(%edx),%edi
    1ea0:	72 2c                	jb     1ece <__FRAME_END__+0x192a>
    1ea2:	20 5f 5f             	and    %bl,0x5f(%edi)
    1ea5:	55                   	push   %ebp
    1ea6:	53                   	push   %ebx
    1ea7:	45                   	inc    %ebp
    1ea8:	5f                   	pop    %edi
    1ea9:	46                   	inc    %esi
    1eaa:	4f                   	dec    %edi
    1eab:	52                   	push   %edx
    1eac:	54                   	push   %esp
    1ead:	49                   	dec    %ecx
    1eae:	46                   	inc    %esi
    1eaf:	59                   	pop    %ecx
    1eb0:	5f                   	pop    %edi
    1eb1:	4c                   	dec    %esp
    1eb2:	45                   	inc    %ebp
    1eb3:	56                   	push   %esi
    1eb4:	45                   	inc    %ebp
    1eb5:	4c                   	dec    %esp
    1eb6:	20 3e                	and    %bh,(%esi)
    1eb8:	20 31                	and    %dh,(%ecx)
    1eba:	29 00                	sub    %eax,(%eax)
    1ebc:	01 93 01 5f 5f 62    	add    %edx,0x625f5f01(%ebx)
    1ec2:	6f                   	outsl  %ds:(%esi),(%dx)
    1ec3:	73 30                	jae    1ef5 <__FRAME_END__+0x1951>
    1ec5:	28 70 74             	sub    %dh,0x74(%eax)
    1ec8:	72 29                	jb     1ef3 <__FRAME_END__+0x194f>
    1eca:	20 5f 5f             	and    %bl,0x5f(%edi)
    1ecd:	62 75 69             	bound  %esi,0x69(%ebp)
    1ed0:	6c                   	insb   (%dx),%es:(%edi)
    1ed1:	74 69                	je     1f3c <_DYNAMIC+0x1c>
    1ed3:	6e                   	outsb  %ds:(%esi),(%dx)
    1ed4:	5f                   	pop    %edi
    1ed5:	6f                   	outsl  %ds:(%esi),(%dx)
    1ed6:	62 6a 65             	bound  %ebp,0x65(%edx)
    1ed9:	63 74 5f 73          	arpl   %si,0x73(%edi,%ebx,2)
    1edd:	69 7a 65 20 28 70 74 	imul   $0x74702820,0x65(%edx),%edi
    1ee4:	72 2c                	jb     1f12 <__CTOR_END__+0x2>
    1ee6:	20 30                	and    %dh,(%eax)
    1ee8:	29 00                	sub    %eax,(%eax)
    1eea:	01 96 01 5f 5f 77    	add    %edx,0x775f5f01(%esi)
    1ef0:	61                   	popa   
    1ef1:	72 6e                	jb     1f61 <_DYNAMIC+0x41>
    1ef3:	64 65 63 6c 28 6e    	fs arpl %bp,%fs:%gs:0x6e(%eax,%ebp,1)
    1ef9:	61                   	popa   
    1efa:	6d                   	insl   (%dx),%es:(%edi)
    1efb:	65                   	gs
    1efc:	2c 6d                	sub    $0x6d,%al
    1efe:	73 67                	jae    1f67 <_DYNAMIC+0x47>
    1f00:	29 20                	sub    %esp,(%eax)
    1f02:	65                   	gs
    1f03:	78 74                	js     1f79 <_DYNAMIC+0x59>
    1f05:	65                   	gs
    1f06:	72 6e                	jb     1f76 <_DYNAMIC+0x56>
    1f08:	20 76 6f             	and    %dh,0x6f(%esi)
    1f0b:	69 64 20 6e 61 6d 65 	imul   $0x20656d61,0x6e(%eax,%eiz,1),%esp
    1f12:	20 
    1f13:	28 76 6f             	sub    %dh,0x6f(%esi)
    1f16:	69 64 29 20 5f 5f 61 	imul   $0x74615f5f,0x20(%ecx,%ebp,1),%esp
    1f1d:	74 
    1f1e:	74 72                	je     1f92 <_DYNAMIC+0x72>
    1f20:	69 62 75 74 65 5f 5f 	imul   $0x5f5f6574,0x75(%edx),%esp
    1f27:	28 28                	sub    %ch,(%eax)
    1f29:	5f                   	pop    %edi
    1f2a:	5f                   	pop    %edi
    1f2b:	77 61                	ja     1f8e <_DYNAMIC+0x6e>
    1f2d:	72 6e                	jb     1f9d <_DYNAMIC+0x7d>
    1f2f:	69 6e 67 5f 5f 20 28 	imul   $0x28205f5f,0x67(%esi),%ebp
    1f36:	6d                   	insl   (%dx),%es:(%edi)
    1f37:	73 67                	jae    1fa0 <_DYNAMIC+0x80>
    1f39:	29 29                	sub    %ebp,(%ecx)
    1f3b:	29 00                	sub    %eax,(%eax)
    1f3d:	01 98 01 5f 5f 77    	add    %ebx,0x775f5f01(%eax)
    1f43:	61                   	popa   
    1f44:	72 6e                	jb     1fb4 <_DYNAMIC+0x94>
    1f46:	61                   	popa   
    1f47:	74 74                	je     1fbd <_DYNAMIC+0x9d>
    1f49:	72 28                	jb     1f73 <_DYNAMIC+0x53>
    1f4b:	6d                   	insl   (%dx),%es:(%edi)
    1f4c:	73 67                	jae    1fb5 <_DYNAMIC+0x95>
    1f4e:	29 20                	sub    %esp,(%eax)
    1f50:	5f                   	pop    %edi
    1f51:	5f                   	pop    %edi
    1f52:	61                   	popa   
    1f53:	74 74                	je     1fc9 <_DYNAMIC+0xa9>
    1f55:	72 69                	jb     1fc0 <_DYNAMIC+0xa0>
    1f57:	62 75 74             	bound  %esi,0x74(%ebp)
    1f5a:	65                   	gs
    1f5b:	5f                   	pop    %edi
    1f5c:	5f                   	pop    %edi
    1f5d:	28 28                	sub    %ch,(%eax)
    1f5f:	5f                   	pop    %edi
    1f60:	5f                   	pop    %edi
    1f61:	77 61                	ja     1fc4 <_DYNAMIC+0xa4>
    1f63:	72 6e                	jb     1fd3 <_DYNAMIC+0xb3>
    1f65:	69 6e 67 5f 5f 20 28 	imul   $0x28205f5f,0x67(%esi),%ebp
    1f6c:	6d                   	insl   (%dx),%es:(%edi)
    1f6d:	73 67                	jae    1fd6 <_DYNAMIC+0xb6>
    1f6f:	29 29                	sub    %ebp,(%ecx)
    1f71:	29 00                	sub    %eax,(%eax)
    1f73:	01 99 01 5f 5f 65    	add    %ebx,0x655f5f01(%ecx)
    1f79:	72 72                	jb     1fed <_DYNAMIC+0xcd>
    1f7b:	6f                   	outsl  %ds:(%esi),(%dx)
    1f7c:	72 64                	jb     1fe2 <_DYNAMIC+0xc2>
    1f7e:	65 63 6c 28 6e       	arpl   %bp,%gs:0x6e(%eax,%ebp,1)
    1f83:	61                   	popa   
    1f84:	6d                   	insl   (%dx),%es:(%edi)
    1f85:	65                   	gs
    1f86:	2c 6d                	sub    $0x6d,%al
    1f88:	73 67                	jae    1ff1 <_DYNAMIC+0xd1>
    1f8a:	29 20                	sub    %esp,(%eax)
    1f8c:	65                   	gs
    1f8d:	78 74                	js     2003 <_GLOBAL_OFFSET_TABLE_+0xf>
    1f8f:	65                   	gs
    1f90:	72 6e                	jb     2000 <_GLOBAL_OFFSET_TABLE_+0xc>
    1f92:	20 76 6f             	and    %dh,0x6f(%esi)
    1f95:	69 64 20 6e 61 6d 65 	imul   $0x20656d61,0x6e(%eax,%eiz,1),%esp
    1f9c:	20 
    1f9d:	28 76 6f             	sub    %dh,0x6f(%esi)
    1fa0:	69 64 29 20 5f 5f 61 	imul   $0x74615f5f,0x20(%ecx,%ebp,1),%esp
    1fa7:	74 
    1fa8:	74 72                	je     201c <_end+0x8>
    1faa:	69 62 75 74 65 5f 5f 	imul   $0x5f5f6574,0x75(%edx),%esp
    1fb1:	28 28                	sub    %ch,(%eax)
    1fb3:	5f                   	pop    %edi
    1fb4:	5f                   	pop    %edi
    1fb5:	65                   	gs
    1fb6:	72 72                	jb     202a <_end+0x16>
    1fb8:	6f                   	outsl  %ds:(%esi),(%dx)
    1fb9:	72 5f                	jb     201a <_end+0x6>
    1fbb:	5f                   	pop    %edi
    1fbc:	20 28                	and    %ch,(%eax)
    1fbe:	6d                   	insl   (%dx),%es:(%edi)
    1fbf:	73 67                	jae    2028 <_end+0x14>
    1fc1:	29 29                	sub    %ebp,(%ecx)
    1fc3:	29 00                	sub    %eax,(%eax)
    1fc5:	01 a4 01 5f 5f 66 6c 	add    %esp,0x6c665f5f(%ecx,%eax,1)
    1fcc:	65                   	gs
    1fcd:	78 61                	js     2030 <_end+0x1c>
    1fcf:	72 72                	jb     2043 <_end+0x2f>
    1fd1:	20 5b 5d             	and    %bl,0x5d(%ebx)
    1fd4:	00 01                	add    %al,(%ecx)
    1fd6:	bf 01 5f 5f 52       	mov    $0x525f5f01,%edi
    1fdb:	45                   	inc    %ebp
    1fdc:	44                   	inc    %esp
    1fdd:	49                   	dec    %ecx
    1fde:	52                   	push   %edx
    1fdf:	45                   	inc    %ebp
    1fe0:	43                   	inc    %ebx
    1fe1:	54                   	push   %esp
    1fe2:	28 6e 61             	sub    %ch,0x61(%esi)
    1fe5:	6d                   	insl   (%dx),%es:(%edi)
    1fe6:	65                   	gs
    1fe7:	2c 70                	sub    $0x70,%al
    1fe9:	72 6f                	jb     205a <_end+0x46>
    1feb:	74 6f                	je     205c <_end+0x48>
    1fed:	2c 61                	sub    $0x61,%al
    1fef:	6c                   	insb   (%dx),%es:(%edi)
    1ff0:	69 61 73 29 20 6e 61 	imul   $0x616e2029,0x73(%ecx),%esp
    1ff7:	6d                   	insl   (%dx),%es:(%edi)
    1ff8:	65 20 70 72          	and    %dh,%gs:0x72(%eax)
    1ffc:	6f                   	outsl  %ds:(%esi),(%dx)
    1ffd:	74 6f                	je     206e <_end+0x5a>
    1fff:	20 5f 5f             	and    %bl,0x5f(%edi)
    2002:	61                   	popa   
    2003:	73 6d                	jae    2072 <_end+0x5e>
    2005:	5f                   	pop    %edi
    2006:	5f                   	pop    %edi
    2007:	20 28                	and    %ch,(%eax)
    2009:	5f                   	pop    %edi
    200a:	5f                   	pop    %edi
    200b:	41                   	inc    %ecx
    200c:	53                   	push   %ebx
    200d:	4d                   	dec    %ebp
    200e:	4e                   	dec    %esi
    200f:	41                   	inc    %ecx
    2010:	4d                   	dec    %ebp
    2011:	45                   	inc    %ebp
    2012:	20 28                	and    %ch,(%eax)
    2014:	23 61 6c             	and    0x6c(%ecx),%esp
    2017:	69 61 73 29 29 00 01 	imul   $0x1002929,0x73(%ecx),%esp
    201e:	c6 01 5f             	movb   $0x5f,(%ecx)
    2021:	5f                   	pop    %edi
    2022:	52                   	push   %edx
    2023:	45                   	inc    %ebp
    2024:	44                   	inc    %esp
    2025:	49                   	dec    %ecx
    2026:	52                   	push   %edx
    2027:	45                   	inc    %ebp
    2028:	43                   	inc    %ebx
    2029:	54                   	push   %esp
    202a:	5f                   	pop    %edi
    202b:	4e                   	dec    %esi
    202c:	54                   	push   %esp
    202d:	48                   	dec    %eax
    202e:	28 6e 61             	sub    %ch,0x61(%esi)
    2031:	6d                   	insl   (%dx),%es:(%edi)
    2032:	65                   	gs
    2033:	2c 70                	sub    $0x70,%al
    2035:	72 6f                	jb     20a6 <_end+0x92>
    2037:	74 6f                	je     20a8 <_end+0x94>
    2039:	2c 61                	sub    $0x61,%al
    203b:	6c                   	insb   (%dx),%es:(%edi)
    203c:	69 61 73 29 20 6e 61 	imul   $0x616e2029,0x73(%ecx),%esp
    2043:	6d                   	insl   (%dx),%es:(%edi)
    2044:	65 20 70 72          	and    %dh,%gs:0x72(%eax)
    2048:	6f                   	outsl  %ds:(%esi),(%dx)
    2049:	74 6f                	je     20ba <_end+0xa6>
    204b:	20 5f 5f             	and    %bl,0x5f(%edi)
    204e:	61                   	popa   
    204f:	73 6d                	jae    20be <_end+0xaa>
    2051:	5f                   	pop    %edi
    2052:	5f                   	pop    %edi
    2053:	20 28                	and    %ch,(%eax)
    2055:	5f                   	pop    %edi
    2056:	5f                   	pop    %edi
    2057:	41                   	inc    %ecx
    2058:	53                   	push   %ebx
    2059:	4d                   	dec    %ebp
    205a:	4e                   	dec    %esi
    205b:	41                   	inc    %ecx
    205c:	4d                   	dec    %ebp
    205d:	45                   	inc    %ebp
    205e:	20 28                	and    %ch,(%eax)
    2060:	23 61 6c             	and    0x6c(%ecx),%esp
    2063:	69 61 73 29 29 20 5f 	imul   $0x5f202929,0x73(%ecx),%esp
    206a:	5f                   	pop    %edi
    206b:	54                   	push   %esp
    206c:	48                   	dec    %eax
    206d:	52                   	push   %edx
    206e:	4f                   	dec    %edi
    206f:	57                   	push   %edi
    2070:	00 01                	add    %al,(%ecx)
    2072:	c8 01 5f 5f          	enter  $0x5f01,$0x5f
    2076:	52                   	push   %edx
    2077:	45                   	inc    %ebp
    2078:	44                   	inc    %esp
    2079:	49                   	dec    %ecx
    207a:	52                   	push   %edx
    207b:	45                   	inc    %ebp
    207c:	43                   	inc    %ebx
    207d:	54                   	push   %esp
    207e:	5f                   	pop    %edi
    207f:	4e                   	dec    %esi
    2080:	54                   	push   %esp
    2081:	48                   	dec    %eax
    2082:	4e                   	dec    %esi
    2083:	4c                   	dec    %esp
    2084:	28 6e 61             	sub    %ch,0x61(%esi)
    2087:	6d                   	insl   (%dx),%es:(%edi)
    2088:	65                   	gs
    2089:	2c 70                	sub    $0x70,%al
    208b:	72 6f                	jb     20fc <_end+0xe8>
    208d:	74 6f                	je     20fe <_end+0xea>
    208f:	2c 61                	sub    $0x61,%al
    2091:	6c                   	insb   (%dx),%es:(%edi)
    2092:	69 61 73 29 20 6e 61 	imul   $0x616e2029,0x73(%ecx),%esp
    2099:	6d                   	insl   (%dx),%es:(%edi)
    209a:	65 20 70 72          	and    %dh,%gs:0x72(%eax)
    209e:	6f                   	outsl  %ds:(%esi),(%dx)
    209f:	74 6f                	je     2110 <_end+0xfc>
    20a1:	20 5f 5f             	and    %bl,0x5f(%edi)
    20a4:	61                   	popa   
    20a5:	73 6d                	jae    2114 <_end+0x100>
    20a7:	5f                   	pop    %edi
    20a8:	5f                   	pop    %edi
    20a9:	20 28                	and    %ch,(%eax)
    20ab:	5f                   	pop    %edi
    20ac:	5f                   	pop    %edi
    20ad:	41                   	inc    %ecx
    20ae:	53                   	push   %ebx
    20af:	4d                   	dec    %ebp
    20b0:	4e                   	dec    %esi
    20b1:	41                   	inc    %ecx
    20b2:	4d                   	dec    %ebp
    20b3:	45                   	inc    %ebp
    20b4:	20 28                	and    %ch,(%eax)
    20b6:	23 61 6c             	and    0x6c(%ecx),%esp
    20b9:	69 61 73 29 29 20 5f 	imul   $0x5f202929,0x73(%ecx),%esp
    20c0:	5f                   	pop    %edi
    20c1:	54                   	push   %esp
    20c2:	48                   	dec    %eax
    20c3:	52                   	push   %edx
    20c4:	4f                   	dec    %edi
    20c5:	57                   	push   %edi
    20c6:	4e                   	dec    %esi
    20c7:	4c                   	dec    %esp
    20c8:	00 01                	add    %al,(%ecx)
    20ca:	cb                   	lret   
    20cb:	01 5f 5f             	add    %ebx,0x5f(%edi)
    20ce:	41                   	inc    %ecx
    20cf:	53                   	push   %ebx
    20d0:	4d                   	dec    %ebp
    20d1:	4e                   	dec    %esi
    20d2:	41                   	inc    %ecx
    20d3:	4d                   	dec    %ebp
    20d4:	45                   	inc    %ebp
    20d5:	28 63 6e             	sub    %ah,0x6e(%ebx)
    20d8:	61                   	popa   
    20d9:	6d                   	insl   (%dx),%es:(%edi)
    20da:	65 29 20             	sub    %esp,%gs:(%eax)
    20dd:	5f                   	pop    %edi
    20de:	5f                   	pop    %edi
    20df:	41                   	inc    %ecx
    20e0:	53                   	push   %ebx
    20e1:	4d                   	dec    %ebp
    20e2:	4e                   	dec    %esi
    20e3:	41                   	inc    %ecx
    20e4:	4d                   	dec    %ebp
    20e5:	45                   	inc    %ebp
    20e6:	32 20                	xor    (%eax),%ah
    20e8:	28 5f 5f             	sub    %bl,0x5f(%edi)
    20eb:	55                   	push   %ebp
    20ec:	53                   	push   %ebx
    20ed:	45                   	inc    %ebp
    20ee:	52                   	push   %edx
    20ef:	5f                   	pop    %edi
    20f0:	4c                   	dec    %esp
    20f1:	41                   	inc    %ecx
    20f2:	42                   	inc    %edx
    20f3:	45                   	inc    %ebp
    20f4:	4c                   	dec    %esp
    20f5:	5f                   	pop    %edi
    20f6:	50                   	push   %eax
    20f7:	52                   	push   %edx
    20f8:	45                   	inc    %ebp
    20f9:	46                   	inc    %esi
    20fa:	49                   	dec    %ecx
    20fb:	58                   	pop    %eax
    20fc:	5f                   	pop    %edi
    20fd:	5f                   	pop    %edi
    20fe:	2c 20                	sub    $0x20,%al
    2100:	63 6e 61             	arpl   %bp,0x61(%esi)
    2103:	6d                   	insl   (%dx),%es:(%edi)
    2104:	65 29 00             	sub    %eax,%gs:(%eax)
    2107:	01 cc                	add    %ecx,%esp
    2109:	01 5f 5f             	add    %ebx,0x5f(%edi)
    210c:	41                   	inc    %ecx
    210d:	53                   	push   %ebx
    210e:	4d                   	dec    %ebp
    210f:	4e                   	dec    %esi
    2110:	41                   	inc    %ecx
    2111:	4d                   	dec    %ebp
    2112:	45                   	inc    %ebp
    2113:	32 28                	xor    (%eax),%ch
    2115:	70 72                	jo     2189 <_end+0x175>
    2117:	65 66 69 78 2c 63 6e 	imul   $0x6e63,%gs:0x2c(%eax),%di
    211e:	61                   	popa   
    211f:	6d                   	insl   (%dx),%es:(%edi)
    2120:	65 29 20             	sub    %esp,%gs:(%eax)
    2123:	5f                   	pop    %edi
    2124:	5f                   	pop    %edi
    2125:	53                   	push   %ebx
    2126:	54                   	push   %esp
    2127:	52                   	push   %edx
    2128:	49                   	dec    %ecx
    2129:	4e                   	dec    %esi
    212a:	47                   	inc    %edi
    212b:	20 28                	and    %ch,(%eax)
    212d:	70 72                	jo     21a1 <_end+0x18d>
    212f:	65 66 69 78 29 20 63 	imul   $0x6320,%gs:0x29(%eax),%di
    2136:	6e                   	outsb  %ds:(%esi),(%dx)
    2137:	61                   	popa   
    2138:	6d                   	insl   (%dx),%es:(%edi)
    2139:	65 00 01             	add    %al,%gs:(%ecx)
    213c:	e1 01                	loope  213f <_end+0x12b>
    213e:	5f                   	pop    %edi
    213f:	5f                   	pop    %edi
    2140:	61                   	popa   
    2141:	74 74                	je     21b7 <_end+0x1a3>
    2143:	72 69                	jb     21ae <_end+0x19a>
    2145:	62 75 74             	bound  %esi,0x74(%ebp)
    2148:	65                   	gs
    2149:	5f                   	pop    %edi
    214a:	6d                   	insl   (%dx),%es:(%edi)
    214b:	61                   	popa   
    214c:	6c                   	insb   (%dx),%es:(%edi)
    214d:	6c                   	insb   (%dx),%es:(%edi)
    214e:	6f                   	outsl  %ds:(%esi),(%dx)
    214f:	63 5f 5f             	arpl   %bx,0x5f(%edi)
    2152:	20 5f 5f             	and    %bl,0x5f(%edi)
    2155:	61                   	popa   
    2156:	74 74                	je     21cc <_end+0x1b8>
    2158:	72 69                	jb     21c3 <_end+0x1af>
    215a:	62 75 74             	bound  %esi,0x74(%ebp)
    215d:	65                   	gs
    215e:	5f                   	pop    %edi
    215f:	5f                   	pop    %edi
    2160:	20 28                	and    %ch,(%eax)
    2162:	28 5f 5f             	sub    %bl,0x5f(%edi)
    2165:	6d                   	insl   (%dx),%es:(%edi)
    2166:	61                   	popa   
    2167:	6c                   	insb   (%dx),%es:(%edi)
    2168:	6c                   	insb   (%dx),%es:(%edi)
    2169:	6f                   	outsl  %ds:(%esi),(%dx)
    216a:	63 5f 5f             	arpl   %bx,0x5f(%edi)
    216d:	29 29                	sub    %ebp,(%ecx)
    216f:	00 01                	add    %al,(%ecx)
    2171:	ea 01 5f 5f 61 74 74 	ljmp   $0x7474,$0x615f5f01
    2178:	72 69                	jb     21e3 <_end+0x1cf>
    217a:	62 75 74             	bound  %esi,0x74(%ebp)
    217d:	65                   	gs
    217e:	5f                   	pop    %edi
    217f:	70 75                	jo     21f6 <_end+0x1e2>
    2181:	72 65                	jb     21e8 <_end+0x1d4>
    2183:	5f                   	pop    %edi
    2184:	5f                   	pop    %edi
    2185:	20 5f 5f             	and    %bl,0x5f(%edi)
    2188:	61                   	popa   
    2189:	74 74                	je     21ff <_end+0x1eb>
    218b:	72 69                	jb     21f6 <_end+0x1e2>
    218d:	62 75 74             	bound  %esi,0x74(%ebp)
    2190:	65                   	gs
    2191:	5f                   	pop    %edi
    2192:	5f                   	pop    %edi
    2193:	20 28                	and    %ch,(%eax)
    2195:	28 5f 5f             	sub    %bl,0x5f(%edi)
    2198:	70 75                	jo     220f <_end+0x1fb>
    219a:	72 65                	jb     2201 <_end+0x1ed>
    219c:	5f                   	pop    %edi
    219d:	5f                   	pop    %edi
    219e:	29 29                	sub    %ebp,(%ecx)
    21a0:	00 01                	add    %al,(%ecx)
    21a2:	f1                   	icebp  
    21a3:	01 5f 5f             	add    %ebx,0x5f(%edi)
    21a6:	61                   	popa   
    21a7:	74 74                	je     221d <_end+0x209>
    21a9:	72 69                	jb     2214 <_end+0x200>
    21ab:	62 75 74             	bound  %esi,0x74(%ebp)
    21ae:	65                   	gs
    21af:	5f                   	pop    %edi
    21b0:	63 6f 6e             	arpl   %bp,0x6e(%edi)
    21b3:	73 74                	jae    2229 <_end+0x215>
    21b5:	5f                   	pop    %edi
    21b6:	5f                   	pop    %edi
    21b7:	20 5f 5f             	and    %bl,0x5f(%edi)
    21ba:	61                   	popa   
    21bb:	74 74                	je     2231 <_end+0x21d>
    21bd:	72 69                	jb     2228 <_end+0x214>
    21bf:	62 75 74             	bound  %esi,0x74(%ebp)
    21c2:	65                   	gs
    21c3:	5f                   	pop    %edi
    21c4:	5f                   	pop    %edi
    21c5:	20 28                	and    %ch,(%eax)
    21c7:	28 5f 5f             	sub    %bl,0x5f(%edi)
    21ca:	63 6f 6e             	arpl   %bp,0x6e(%edi)
    21cd:	73 74                	jae    2243 <_end+0x22f>
    21cf:	5f                   	pop    %edi
    21d0:	5f                   	pop    %edi
    21d1:	29 29                	sub    %ebp,(%ecx)
    21d3:	00 01                	add    %al,(%ecx)
    21d5:	fa                   	cli    
    21d6:	01 5f 5f             	add    %ebx,0x5f(%edi)
    21d9:	61                   	popa   
    21da:	74 74                	je     2250 <_end+0x23c>
    21dc:	72 69                	jb     2247 <_end+0x233>
    21de:	62 75 74             	bound  %esi,0x74(%ebp)
    21e1:	65                   	gs
    21e2:	5f                   	pop    %edi
    21e3:	75 73                	jne    2258 <_end+0x244>
    21e5:	65                   	gs
    21e6:	64                   	fs
    21e7:	5f                   	pop    %edi
    21e8:	5f                   	pop    %edi
    21e9:	20 5f 5f             	and    %bl,0x5f(%edi)
    21ec:	61                   	popa   
    21ed:	74 74                	je     2263 <_end+0x24f>
    21ef:	72 69                	jb     225a <_end+0x246>
    21f1:	62 75 74             	bound  %esi,0x74(%ebp)
    21f4:	65                   	gs
    21f5:	5f                   	pop    %edi
    21f6:	5f                   	pop    %edi
    21f7:	20 28                	and    %ch,(%eax)
    21f9:	28 5f 5f             	sub    %bl,0x5f(%edi)
    21fc:	75 73                	jne    2271 <_end+0x25d>
    21fe:	65                   	gs
    21ff:	64                   	fs
    2200:	5f                   	pop    %edi
    2201:	5f                   	pop    %edi
    2202:	29 29                	sub    %ebp,(%ecx)
    2204:	00 01                	add    %al,(%ecx)
    2206:	fb                   	sti    
    2207:	01 5f 5f             	add    %ebx,0x5f(%edi)
    220a:	61                   	popa   
    220b:	74 74                	je     2281 <_end+0x26d>
    220d:	72 69                	jb     2278 <_end+0x264>
    220f:	62 75 74             	bound  %esi,0x74(%ebp)
    2212:	65                   	gs
    2213:	5f                   	pop    %edi
    2214:	6e                   	outsb  %ds:(%esi),(%dx)
    2215:	6f                   	outsl  %ds:(%esi),(%dx)
    2216:	69 6e 6c 69 6e 65 5f 	imul   $0x5f656e69,0x6c(%esi),%ebp
    221d:	5f                   	pop    %edi
    221e:	20 5f 5f             	and    %bl,0x5f(%edi)
    2221:	61                   	popa   
    2222:	74 74                	je     2298 <_end+0x284>
    2224:	72 69                	jb     228f <_end+0x27b>
    2226:	62 75 74             	bound  %esi,0x74(%ebp)
    2229:	65                   	gs
    222a:	5f                   	pop    %edi
    222b:	5f                   	pop    %edi
    222c:	20 28                	and    %ch,(%eax)
    222e:	28 5f 5f             	sub    %bl,0x5f(%edi)
    2231:	6e                   	outsb  %ds:(%esi),(%dx)
    2232:	6f                   	outsl  %ds:(%esi),(%dx)
    2233:	69 6e 6c 69 6e 65 5f 	imul   $0x5f656e69,0x6c(%esi),%ebp
    223a:	5f                   	pop    %edi
    223b:	29 29                	sub    %ebp,(%ecx)
    223d:	00 01                	add    %al,(%ecx)
    223f:	83 02 5f             	addl   $0x5f,(%edx)
    2242:	5f                   	pop    %edi
    2243:	61                   	popa   
    2244:	74 74                	je     22ba <_end+0x2a6>
    2246:	72 69                	jb     22b1 <_end+0x29d>
    2248:	62 75 74             	bound  %esi,0x74(%ebp)
    224b:	65                   	gs
    224c:	5f                   	pop    %edi
    224d:	64                   	fs
    224e:	65                   	gs
    224f:	70 72                	jo     22c3 <_end+0x2af>
    2251:	65 63 61 74          	arpl   %sp,%gs:0x74(%ecx)
    2255:	65                   	gs
    2256:	64                   	fs
    2257:	5f                   	pop    %edi
    2258:	5f                   	pop    %edi
    2259:	20 5f 5f             	and    %bl,0x5f(%edi)
    225c:	61                   	popa   
    225d:	74 74                	je     22d3 <_end+0x2bf>
    225f:	72 69                	jb     22ca <_end+0x2b6>
    2261:	62 75 74             	bound  %esi,0x74(%ebp)
    2264:	65                   	gs
    2265:	5f                   	pop    %edi
    2266:	5f                   	pop    %edi
    2267:	20 28                	and    %ch,(%eax)
    2269:	28 5f 5f             	sub    %bl,0x5f(%edi)
    226c:	64                   	fs
    226d:	65                   	gs
    226e:	70 72                	jo     22e2 <_end+0x2ce>
    2270:	65 63 61 74          	arpl   %sp,%gs:0x74(%ecx)
    2274:	65                   	gs
    2275:	64                   	fs
    2276:	5f                   	pop    %edi
    2277:	5f                   	pop    %edi
    2278:	29 29                	sub    %ebp,(%ecx)
    227a:	00 01                	add    %al,(%ecx)
    227c:	8f 02                	popl   (%edx)
    227e:	5f                   	pop    %edi
    227f:	5f                   	pop    %edi
    2280:	61                   	popa   
    2281:	74 74                	je     22f7 <_end+0x2e3>
    2283:	72 69                	jb     22ee <_end+0x2da>
    2285:	62 75 74             	bound  %esi,0x74(%ebp)
    2288:	65                   	gs
    2289:	5f                   	pop    %edi
    228a:	66 6f                	outsw  %ds:(%esi),(%dx)
    228c:	72 6d                	jb     22fb <_end+0x2e7>
    228e:	61                   	popa   
    228f:	74 5f                	je     22f0 <_end+0x2dc>
    2291:	61                   	popa   
    2292:	72 67                	jb     22fb <_end+0x2e7>
    2294:	5f                   	pop    %edi
    2295:	5f                   	pop    %edi
    2296:	28 78 29             	sub    %bh,0x29(%eax)
    2299:	20 5f 5f             	and    %bl,0x5f(%edi)
    229c:	61                   	popa   
    229d:	74 74                	je     2313 <_end+0x2ff>
    229f:	72 69                	jb     230a <_end+0x2f6>
    22a1:	62 75 74             	bound  %esi,0x74(%ebp)
    22a4:	65                   	gs
    22a5:	5f                   	pop    %edi
    22a6:	5f                   	pop    %edi
    22a7:	20 28                	and    %ch,(%eax)
    22a9:	28 5f 5f             	sub    %bl,0x5f(%edi)
    22ac:	66 6f                	outsw  %ds:(%esi),(%dx)
    22ae:	72 6d                	jb     231d <_end+0x309>
    22b0:	61                   	popa   
    22b1:	74 5f                	je     2312 <_end+0x2fe>
    22b3:	61                   	popa   
    22b4:	72 67                	jb     231d <_end+0x309>
    22b6:	5f                   	pop    %edi
    22b7:	5f                   	pop    %edi
    22b8:	20 28                	and    %ch,(%eax)
    22ba:	78 29                	js     22e5 <_end+0x2d1>
    22bc:	29 29                	sub    %ebp,(%ecx)
    22be:	00 01                	add    %al,(%ecx)
    22c0:	99                   	cltd   
    22c1:	02 5f 5f             	add    0x5f(%edi),%bl
    22c4:	61                   	popa   
    22c5:	74 74                	je     233b <_end+0x327>
    22c7:	72 69                	jb     2332 <_end+0x31e>
    22c9:	62 75 74             	bound  %esi,0x74(%ebp)
    22cc:	65                   	gs
    22cd:	5f                   	pop    %edi
    22ce:	66 6f                	outsw  %ds:(%esi),(%dx)
    22d0:	72 6d                	jb     233f <_end+0x32b>
    22d2:	61                   	popa   
    22d3:	74 5f                	je     2334 <_end+0x320>
    22d5:	73 74                	jae    234b <_end+0x337>
    22d7:	72 66                	jb     233f <_end+0x32b>
    22d9:	6d                   	insl   (%dx),%es:(%edi)
    22da:	6f                   	outsl  %ds:(%esi),(%dx)
    22db:	6e                   	outsb  %ds:(%esi),(%dx)
    22dc:	5f                   	pop    %edi
    22dd:	5f                   	pop    %edi
    22de:	28 61 2c             	sub    %ah,0x2c(%ecx)
    22e1:	62 29                	bound  %ebp,(%ecx)
    22e3:	20 5f 5f             	and    %bl,0x5f(%edi)
    22e6:	61                   	popa   
    22e7:	74 74                	je     235d <_end+0x349>
    22e9:	72 69                	jb     2354 <_end+0x340>
    22eb:	62 75 74             	bound  %esi,0x74(%ebp)
    22ee:	65                   	gs
    22ef:	5f                   	pop    %edi
    22f0:	5f                   	pop    %edi
    22f1:	20 28                	and    %ch,(%eax)
    22f3:	28 5f 5f             	sub    %bl,0x5f(%edi)
    22f6:	66 6f                	outsw  %ds:(%esi),(%dx)
    22f8:	72 6d                	jb     2367 <_end+0x353>
    22fa:	61                   	popa   
    22fb:	74 5f                	je     235c <_end+0x348>
    22fd:	5f                   	pop    %edi
    22fe:	20 28                	and    %ch,(%eax)
    2300:	5f                   	pop    %edi
    2301:	5f                   	pop    %edi
    2302:	73 74                	jae    2378 <_end+0x364>
    2304:	72 66                	jb     236c <_end+0x358>
    2306:	6d                   	insl   (%dx),%es:(%edi)
    2307:	6f                   	outsl  %ds:(%esi),(%dx)
    2308:	6e                   	outsb  %ds:(%esi),(%dx)
    2309:	5f                   	pop    %edi
    230a:	5f                   	pop    %edi
    230b:	2c 20                	sub    $0x20,%al
    230d:	61                   	popa   
    230e:	2c 20                	sub    $0x20,%al
    2310:	62 29                	bound  %ebp,(%ecx)
    2312:	29 29                	sub    %ebp,(%ecx)
    2314:	00 01                	add    %al,(%ecx)
    2316:	a2 02 5f 5f 6e       	mov    %al,0x6e5f5f02
    231b:	6f                   	outsl  %ds:(%esi),(%dx)
    231c:	6e                   	outsb  %ds:(%esi),(%dx)
    231d:	6e                   	outsb  %ds:(%esi),(%dx)
    231e:	75 6c                	jne    238c <_end+0x378>
    2320:	6c                   	insb   (%dx),%es:(%edi)
    2321:	28 70 61             	sub    %dh,0x61(%eax)
    2324:	72 61                	jb     2387 <_end+0x373>
    2326:	6d                   	insl   (%dx),%es:(%edi)
    2327:	73 29                	jae    2352 <_end+0x33e>
    2329:	20 5f 5f             	and    %bl,0x5f(%edi)
    232c:	61                   	popa   
    232d:	74 74                	je     23a3 <_end+0x38f>
    232f:	72 69                	jb     239a <_end+0x386>
    2331:	62 75 74             	bound  %esi,0x74(%ebp)
    2334:	65                   	gs
    2335:	5f                   	pop    %edi
    2336:	5f                   	pop    %edi
    2337:	20 28                	and    %ch,(%eax)
    2339:	28 5f 5f             	sub    %bl,0x5f(%edi)
    233c:	6e                   	outsb  %ds:(%esi),(%dx)
    233d:	6f                   	outsl  %ds:(%esi),(%dx)
    233e:	6e                   	outsb  %ds:(%esi),(%dx)
    233f:	6e                   	outsb  %ds:(%esi),(%dx)
    2340:	75 6c                	jne    23ae <_end+0x39a>
    2342:	6c                   	insb   (%dx),%es:(%edi)
    2343:	5f                   	pop    %edi
    2344:	5f                   	pop    %edi
    2345:	20 70 61             	and    %dh,0x61(%eax)
    2348:	72 61                	jb     23ab <_end+0x397>
    234a:	6d                   	insl   (%dx),%es:(%edi)
    234b:	73 29                	jae    2376 <_end+0x362>
    234d:	29 00                	sub    %eax,(%eax)
    234f:	01 aa 02 5f 5f 61    	add    %ebp,0x615f5f02(%edx)
    2355:	74 74                	je     23cb <_end+0x3b7>
    2357:	72 69                	jb     23c2 <_end+0x3ae>
    2359:	62 75 74             	bound  %esi,0x74(%ebp)
    235c:	65                   	gs
    235d:	5f                   	pop    %edi
    235e:	77 61                	ja     23c1 <_end+0x3ad>
    2360:	72 6e                	jb     23d0 <_end+0x3bc>
    2362:	5f                   	pop    %edi
    2363:	75 6e                	jne    23d3 <_end+0x3bf>
    2365:	75 73                	jne    23da <_end+0x3c6>
    2367:	65                   	gs
    2368:	64                   	fs
    2369:	5f                   	pop    %edi
    236a:	72 65                	jb     23d1 <_end+0x3bd>
    236c:	73 75                	jae    23e3 <_end+0x3cf>
    236e:	6c                   	insb   (%dx),%es:(%edi)
    236f:	74 5f                	je     23d0 <_end+0x3bc>
    2371:	5f                   	pop    %edi
    2372:	20 5f 5f             	and    %bl,0x5f(%edi)
    2375:	61                   	popa   
    2376:	74 74                	je     23ec <_end+0x3d8>
    2378:	72 69                	jb     23e3 <_end+0x3cf>
    237a:	62 75 74             	bound  %esi,0x74(%ebp)
    237d:	65                   	gs
    237e:	5f                   	pop    %edi
    237f:	5f                   	pop    %edi
    2380:	20 28                	and    %ch,(%eax)
    2382:	28 5f 5f             	sub    %bl,0x5f(%edi)
    2385:	77 61                	ja     23e8 <_end+0x3d4>
    2387:	72 6e                	jb     23f7 <_end+0x3e3>
    2389:	5f                   	pop    %edi
    238a:	75 6e                	jne    23fa <_end+0x3e6>
    238c:	75 73                	jne    2401 <_end+0x3ed>
    238e:	65                   	gs
    238f:	64                   	fs
    2390:	5f                   	pop    %edi
    2391:	72 65                	jb     23f8 <_end+0x3e4>
    2393:	73 75                	jae    240a <_end+0x3f6>
    2395:	6c                   	insb   (%dx),%es:(%edi)
    2396:	74 5f                	je     23f7 <_end+0x3e3>
    2398:	5f                   	pop    %edi
    2399:	29 29                	sub    %ebp,(%ecx)
    239b:	00 01                	add    %al,(%ecx)
    239d:	b3 02                	mov    $0x2,%bl
    239f:	5f                   	pop    %edi
    23a0:	5f                   	pop    %edi
    23a1:	77 75                	ja     2418 <_end+0x404>
    23a3:	72 20                	jb     23c5 <_end+0x3b1>
    23a5:	00 01                	add    %al,(%ecx)
    23a7:	b8 02 5f 5f 61       	mov    $0x615f5f02,%eax
    23ac:	6c                   	insb   (%dx),%es:(%edi)
    23ad:	77 61                	ja     2410 <_end+0x3fc>
    23af:	79 73                	jns    2424 <_end+0x410>
    23b1:	5f                   	pop    %edi
    23b2:	69 6e 6c 69 6e 65 20 	imul   $0x20656e69,0x6c(%esi),%ebp
    23b9:	5f                   	pop    %edi
    23ba:	5f                   	pop    %edi
    23bb:	69 6e 6c 69 6e 65 20 	imul   $0x20656e69,0x6c(%esi),%ebp
    23c2:	5f                   	pop    %edi
    23c3:	5f                   	pop    %edi
    23c4:	61                   	popa   
    23c5:	74 74                	je     243b <_end+0x427>
    23c7:	72 69                	jb     2432 <_end+0x41e>
    23c9:	62 75 74             	bound  %esi,0x74(%ebp)
    23cc:	65                   	gs
    23cd:	5f                   	pop    %edi
    23ce:	5f                   	pop    %edi
    23cf:	20 28                	and    %ch,(%eax)
    23d1:	28 5f 5f             	sub    %bl,0x5f(%edi)
    23d4:	61                   	popa   
    23d5:	6c                   	insb   (%dx),%es:(%edi)
    23d6:	77 61                	ja     2439 <_end+0x425>
    23d8:	79 73                	jns    244d <_end+0x439>
    23da:	5f                   	pop    %edi
    23db:	69 6e 6c 69 6e 65 5f 	imul   $0x5f656e69,0x6c(%esi),%ebp
    23e2:	5f                   	pop    %edi
    23e3:	29 29                	sub    %ebp,(%ecx)
    23e5:	00 01                	add    %al,(%ecx)
    23e7:	ca 02 5f             	lret   $0x5f02
    23ea:	5f                   	pop    %edi
    23eb:	65                   	gs
    23ec:	78 74                	js     2462 <_end+0x44e>
    23ee:	65                   	gs
    23ef:	72 6e                	jb     245f <_end+0x44b>
    23f1:	5f                   	pop    %edi
    23f2:	69 6e 6c 69 6e 65 20 	imul   $0x20656e69,0x6c(%esi),%ebp
    23f9:	65                   	gs
    23fa:	78 74                	js     2470 <_end+0x45c>
    23fc:	65                   	gs
    23fd:	72 6e                	jb     246d <_end+0x459>
    23ff:	20 5f 5f             	and    %bl,0x5f(%edi)
    2402:	69 6e 6c 69 6e 65 00 	imul   $0x656e69,0x6c(%esi),%ebp
    2409:	01 cc                	add    %ecx,%esp
    240b:	02 5f 5f             	add    0x5f(%edi),%bl
    240e:	65                   	gs
    240f:	78 74                	js     2485 <_end+0x471>
    2411:	65                   	gs
    2412:	72 6e                	jb     2482 <_end+0x46e>
    2414:	5f                   	pop    %edi
    2415:	61                   	popa   
    2416:	6c                   	insb   (%dx),%es:(%edi)
    2417:	77 61                	ja     247a <_end+0x466>
    2419:	79 73                	jns    248e <_end+0x47a>
    241b:	5f                   	pop    %edi
    241c:	69 6e 6c 69 6e 65 20 	imul   $0x20656e69,0x6c(%esi),%ebp
    2423:	65                   	gs
    2424:	78 74                	js     249a <_end+0x486>
    2426:	65                   	gs
    2427:	72 6e                	jb     2497 <_end+0x483>
    2429:	20 5f 5f             	and    %bl,0x5f(%edi)
    242c:	61                   	popa   
    242d:	6c                   	insb   (%dx),%es:(%edi)
    242e:	77 61                	ja     2491 <_end+0x47d>
    2430:	79 73                	jns    24a5 <_end+0x491>
    2432:	5f                   	pop    %edi
    2433:	69 6e 6c 69 6e 65 20 	imul   $0x20656e69,0x6c(%esi),%ebp
    243a:	5f                   	pop    %edi
    243b:	5f                   	pop    %edi
    243c:	61                   	popa   
    243d:	74 74                	je     24b3 <_end+0x49f>
    243f:	72 69                	jb     24aa <_end+0x496>
    2441:	62 75 74             	bound  %esi,0x74(%ebp)
    2444:	65                   	gs
    2445:	5f                   	pop    %edi
    2446:	5f                   	pop    %edi
    2447:	20 28                	and    %ch,(%eax)
    2449:	28 5f 5f             	sub    %bl,0x5f(%edi)
    244c:	61                   	popa   
    244d:	72 74                	jb     24c3 <_end+0x4af>
    244f:	69 66 69 63 69 61 6c 	imul   $0x6c616963,0x69(%esi),%esp
    2456:	5f                   	pop    %edi
    2457:	5f                   	pop    %edi
    2458:	29 29                	sub    %ebp,(%ecx)
    245a:	00 01                	add    %al,(%ecx)
    245c:	d7                   	xlat   %ds:(%ebx)
    245d:	02 5f 5f             	add    0x5f(%edi),%bl
    2460:	76 61                	jbe    24c3 <_end+0x4af>
    2462:	5f                   	pop    %edi
    2463:	61                   	popa   
    2464:	72 67                	jb     24cd <_end+0x4b9>
    2466:	5f                   	pop    %edi
    2467:	70 61                	jo     24ca <_end+0x4b6>
    2469:	63 6b 28             	arpl   %bp,0x28(%ebx)
    246c:	29 20                	sub    %esp,(%eax)
    246e:	5f                   	pop    %edi
    246f:	5f                   	pop    %edi
    2470:	62 75 69             	bound  %esi,0x69(%ebp)
    2473:	6c                   	insb   (%dx),%es:(%edi)
    2474:	74 69                	je     24df <_end+0x4cb>
    2476:	6e                   	outsb  %ds:(%esi),(%dx)
    2477:	5f                   	pop    %edi
    2478:	76 61                	jbe    24db <_end+0x4c7>
    247a:	5f                   	pop    %edi
    247b:	61                   	popa   
    247c:	72 67                	jb     24e5 <_end+0x4d1>
    247e:	5f                   	pop    %edi
    247f:	70 61                	jo     24e2 <_end+0x4ce>
    2481:	63 6b 20             	arpl   %bp,0x20(%ebx)
    2484:	28 29                	sub    %ch,(%ecx)
    2486:	00 01                	add    %al,(%ecx)
    2488:	d8 02                	fadds  (%edx)
    248a:	5f                   	pop    %edi
    248b:	5f                   	pop    %edi
    248c:	76 61                	jbe    24ef <_end+0x4db>
    248e:	5f                   	pop    %edi
    248f:	61                   	popa   
    2490:	72 67                	jb     24f9 <_end+0x4e5>
    2492:	5f                   	pop    %edi
    2493:	70 61                	jo     24f6 <_end+0x4e2>
    2495:	63 6b 5f             	arpl   %bp,0x5f(%ebx)
    2498:	6c                   	insb   (%dx),%es:(%edi)
    2499:	65 6e                	outsb  %gs:(%esi),(%dx)
    249b:	28 29                	sub    %ch,(%ecx)
    249d:	20 5f 5f             	and    %bl,0x5f(%edi)
    24a0:	62 75 69             	bound  %esi,0x69(%ebp)
    24a3:	6c                   	insb   (%dx),%es:(%edi)
    24a4:	74 69                	je     250f <_end+0x4fb>
    24a6:	6e                   	outsb  %ds:(%esi),(%dx)
    24a7:	5f                   	pop    %edi
    24a8:	76 61                	jbe    250b <_end+0x4f7>
    24aa:	5f                   	pop    %edi
    24ab:	61                   	popa   
    24ac:	72 67                	jb     2515 <_end+0x501>
    24ae:	5f                   	pop    %edi
    24af:	70 61                	jo     2512 <_end+0x4fe>
    24b1:	63 6b 5f             	arpl   %bp,0x5f(%ebx)
    24b4:	6c                   	insb   (%dx),%es:(%edi)
    24b5:	65 6e                	outsb  %gs:(%esi),(%dx)
    24b7:	20 28                	and    %ch,(%eax)
    24b9:	29 00                	sub    %eax,(%eax)
    24bb:	01 ec                	add    %ebp,%esp
    24bd:	02 5f 5f             	add    0x5f(%edi),%bl
    24c0:	72 65                	jb     2527 <_end+0x513>
    24c2:	73 74                	jae    2538 <_end+0x524>
    24c4:	72 69                	jb     252f <_end+0x51b>
    24c6:	63 74 5f 61          	arpl   %si,0x61(%edi,%ebx,2)
    24ca:	72 72                	jb     253e <_end+0x52a>
    24cc:	20 5f 5f             	and    %bl,0x5f(%edi)
    24cf:	72 65                	jb     2536 <_end+0x522>
    24d1:	73 74                	jae    2547 <_end+0x533>
    24d3:	72 69                	jb     253e <_end+0x52a>
    24d5:	63 74 00 03          	arpl   %si,0x3(%eax,%eax,1)
    24d9:	fa                   	cli    
    24da:	02 06                	add    (%esi),%al
    24dc:	01 13                	add    %edx,(%ebx)
    24de:	5f                   	pop    %edi
    24df:	5f                   	pop    %edi
    24e0:	57                   	push   %edi
    24e1:	4f                   	dec    %edi
    24e2:	52                   	push   %edx
    24e3:	44                   	inc    %esp
    24e4:	53                   	push   %ebx
    24e5:	49                   	dec    %ecx
    24e6:	5a                   	pop    %edx
    24e7:	45                   	inc    %ebp
    24e8:	20 33                	and    %dh,(%ebx)
    24ea:	32 00                	xor    (%eax),%al
    24ec:	04 01                	add    $0x1,%al
    24ee:	90                   	nop
    24ef:	03 5f 5f             	add    0x5f(%edi),%ebx
    24f2:	4c                   	dec    %esp
    24f3:	44                   	inc    %esp
    24f4:	42                   	inc    %edx
    24f5:	4c                   	dec    %esp
    24f6:	5f                   	pop    %edi
    24f7:	52                   	push   %edx
    24f8:	45                   	inc    %ebp
    24f9:	44                   	inc    %esp
    24fa:	49                   	dec    %ecx
    24fb:	52                   	push   %edx
    24fc:	31 28                	xor    %ebp,(%eax)
    24fe:	6e                   	outsb  %ds:(%esi),(%dx)
    24ff:	61                   	popa   
    2500:	6d                   	insl   (%dx),%es:(%edi)
    2501:	65                   	gs
    2502:	2c 70                	sub    $0x70,%al
    2504:	72 6f                	jb     2575 <_end+0x561>
    2506:	74 6f                	je     2577 <_end+0x563>
    2508:	2c 61                	sub    $0x61,%al
    250a:	6c                   	insb   (%dx),%es:(%edi)
    250b:	69 61 73 29 20 6e 61 	imul   $0x616e2029,0x73(%ecx),%esp
    2512:	6d                   	insl   (%dx),%es:(%edi)
    2513:	65 20 70 72          	and    %dh,%gs:0x72(%eax)
    2517:	6f                   	outsl  %ds:(%esi),(%dx)
    2518:	74 6f                	je     2589 <_end+0x575>
    251a:	00 01                	add    %al,(%ecx)
    251c:	91                   	xchg   %eax,%ecx
    251d:	03 5f 5f             	add    0x5f(%edi),%ebx
    2520:	4c                   	dec    %esp
    2521:	44                   	inc    %esp
    2522:	42                   	inc    %edx
    2523:	4c                   	dec    %esp
    2524:	5f                   	pop    %edi
    2525:	52                   	push   %edx
    2526:	45                   	inc    %ebp
    2527:	44                   	inc    %esp
    2528:	49                   	dec    %ecx
    2529:	52                   	push   %edx
    252a:	28 6e 61             	sub    %ch,0x61(%esi)
    252d:	6d                   	insl   (%dx),%es:(%edi)
    252e:	65                   	gs
    252f:	2c 70                	sub    $0x70,%al
    2531:	72 6f                	jb     25a2 <_end+0x58e>
    2533:	74 6f                	je     25a4 <_end+0x590>
    2535:	29 20                	sub    %esp,(%eax)
    2537:	6e                   	outsb  %ds:(%esi),(%dx)
    2538:	61                   	popa   
    2539:	6d                   	insl   (%dx),%es:(%edi)
    253a:	65 20 70 72          	and    %dh,%gs:0x72(%eax)
    253e:	6f                   	outsl  %ds:(%esi),(%dx)
    253f:	74 6f                	je     25b0 <_end+0x59c>
    2541:	00 01                	add    %al,(%ecx)
    2543:	92                   	xchg   %eax,%edx
    2544:	03 5f 5f             	add    0x5f(%edi),%ebx
    2547:	4c                   	dec    %esp
    2548:	44                   	inc    %esp
    2549:	42                   	inc    %edx
    254a:	4c                   	dec    %esp
    254b:	5f                   	pop    %edi
    254c:	52                   	push   %edx
    254d:	45                   	inc    %ebp
    254e:	44                   	inc    %esp
    254f:	49                   	dec    %ecx
    2550:	52                   	push   %edx
    2551:	31 5f 4e             	xor    %ebx,0x4e(%edi)
    2554:	54                   	push   %esp
    2555:	48                   	dec    %eax
    2556:	28 6e 61             	sub    %ch,0x61(%esi)
    2559:	6d                   	insl   (%dx),%es:(%edi)
    255a:	65                   	gs
    255b:	2c 70                	sub    $0x70,%al
    255d:	72 6f                	jb     25ce <_end+0x5ba>
    255f:	74 6f                	je     25d0 <_end+0x5bc>
    2561:	2c 61                	sub    $0x61,%al
    2563:	6c                   	insb   (%dx),%es:(%edi)
    2564:	69 61 73 29 20 6e 61 	imul   $0x616e2029,0x73(%ecx),%esp
    256b:	6d                   	insl   (%dx),%es:(%edi)
    256c:	65 20 70 72          	and    %dh,%gs:0x72(%eax)
    2570:	6f                   	outsl  %ds:(%esi),(%dx)
    2571:	74 6f                	je     25e2 <_end+0x5ce>
    2573:	20 5f 5f             	and    %bl,0x5f(%edi)
    2576:	54                   	push   %esp
    2577:	48                   	dec    %eax
    2578:	52                   	push   %edx
    2579:	4f                   	dec    %edi
    257a:	57                   	push   %edi
    257b:	00 01                	add    %al,(%ecx)
    257d:	93                   	xchg   %eax,%ebx
    257e:	03 5f 5f             	add    0x5f(%edi),%ebx
    2581:	4c                   	dec    %esp
    2582:	44                   	inc    %esp
    2583:	42                   	inc    %edx
    2584:	4c                   	dec    %esp
    2585:	5f                   	pop    %edi
    2586:	52                   	push   %edx
    2587:	45                   	inc    %ebp
    2588:	44                   	inc    %esp
    2589:	49                   	dec    %ecx
    258a:	52                   	push   %edx
    258b:	5f                   	pop    %edi
    258c:	4e                   	dec    %esi
    258d:	54                   	push   %esp
    258e:	48                   	dec    %eax
    258f:	28 6e 61             	sub    %ch,0x61(%esi)
    2592:	6d                   	insl   (%dx),%es:(%edi)
    2593:	65                   	gs
    2594:	2c 70                	sub    $0x70,%al
    2596:	72 6f                	jb     2607 <_end+0x5f3>
    2598:	74 6f                	je     2609 <_end+0x5f5>
    259a:	29 20                	sub    %esp,(%eax)
    259c:	6e                   	outsb  %ds:(%esi),(%dx)
    259d:	61                   	popa   
    259e:	6d                   	insl   (%dx),%es:(%edi)
    259f:	65 20 70 72          	and    %dh,%gs:0x72(%eax)
    25a3:	6f                   	outsl  %ds:(%esi),(%dx)
    25a4:	74 6f                	je     2615 <_end+0x601>
    25a6:	20 5f 5f             	and    %bl,0x5f(%edi)
    25a9:	54                   	push   %esp
    25aa:	48                   	dec    %eax
    25ab:	52                   	push   %edx
    25ac:	4f                   	dec    %edi
    25ad:	57                   	push   %edi
    25ae:	00 01                	add    %al,(%ecx)
    25b0:	94                   	xchg   %eax,%esp
    25b1:	03 5f 5f             	add    0x5f(%edi),%ebx
    25b4:	4c                   	dec    %esp
    25b5:	44                   	inc    %esp
    25b6:	42                   	inc    %edx
    25b7:	4c                   	dec    %esp
    25b8:	5f                   	pop    %edi
    25b9:	52                   	push   %edx
    25ba:	45                   	inc    %ebp
    25bb:	44                   	inc    %esp
    25bc:	49                   	dec    %ecx
    25bd:	52                   	push   %edx
    25be:	5f                   	pop    %edi
    25bf:	44                   	inc    %esp
    25c0:	45                   	inc    %ebp
    25c1:	43                   	inc    %ebx
    25c2:	4c                   	dec    %esp
    25c3:	28 6e 61             	sub    %ch,0x61(%esi)
    25c6:	6d                   	insl   (%dx),%es:(%edi)
    25c7:	65 29 20             	sub    %esp,%gs:(%eax)
    25ca:	00 01                	add    %al,(%ecx)
    25cc:	96                   	xchg   %eax,%esi
    25cd:	03 5f 5f             	add    0x5f(%edi),%ebx
    25d0:	52                   	push   %edx
    25d1:	45                   	inc    %ebp
    25d2:	44                   	inc    %esp
    25d3:	49                   	dec    %ecx
    25d4:	52                   	push   %edx
    25d5:	45                   	inc    %ebp
    25d6:	43                   	inc    %ebx
    25d7:	54                   	push   %esp
    25d8:	5f                   	pop    %edi
    25d9:	4c                   	dec    %esp
    25da:	44                   	inc    %esp
    25db:	42                   	inc    %edx
    25dc:	4c                   	dec    %esp
    25dd:	28 6e 61             	sub    %ch,0x61(%esi)
    25e0:	6d                   	insl   (%dx),%es:(%edi)
    25e1:	65                   	gs
    25e2:	2c 70                	sub    $0x70,%al
    25e4:	72 6f                	jb     2655 <_end+0x641>
    25e6:	74 6f                	je     2657 <_end+0x643>
    25e8:	2c 61                	sub    $0x61,%al
    25ea:	6c                   	insb   (%dx),%es:(%edi)
    25eb:	69 61 73 29 20 5f 5f 	imul   $0x5f5f2029,0x73(%ecx),%esp
    25f2:	52                   	push   %edx
    25f3:	45                   	inc    %ebp
    25f4:	44                   	inc    %esp
    25f5:	49                   	dec    %ecx
    25f6:	52                   	push   %edx
    25f7:	45                   	inc    %ebp
    25f8:	43                   	inc    %ebx
    25f9:	54                   	push   %esp
    25fa:	20 28                	and    %ch,(%eax)
    25fc:	6e                   	outsb  %ds:(%esi),(%dx)
    25fd:	61                   	popa   
    25fe:	6d                   	insl   (%dx),%es:(%edi)
    25ff:	65                   	gs
    2600:	2c 20                	sub    $0x20,%al
    2602:	70 72                	jo     2676 <_end+0x662>
    2604:	6f                   	outsl  %ds:(%esi),(%dx)
    2605:	74 6f                	je     2676 <_end+0x662>
    2607:	2c 20                	sub    $0x20,%al
    2609:	61                   	popa   
    260a:	6c                   	insb   (%dx),%es:(%edi)
    260b:	69 61 73 29 00 01 97 	imul   $0x97010029,0x73(%ecx),%esp
    2612:	03 5f 5f             	add    0x5f(%edi),%ebx
    2615:	52                   	push   %edx
    2616:	45                   	inc    %ebp
    2617:	44                   	inc    %esp
    2618:	49                   	dec    %ecx
    2619:	52                   	push   %edx
    261a:	45                   	inc    %ebp
    261b:	43                   	inc    %ebx
    261c:	54                   	push   %esp
    261d:	5f                   	pop    %edi
    261e:	4e                   	dec    %esi
    261f:	54                   	push   %esp
    2620:	48                   	dec    %eax
    2621:	5f                   	pop    %edi
    2622:	4c                   	dec    %esp
    2623:	44                   	inc    %esp
    2624:	42                   	inc    %edx
    2625:	4c                   	dec    %esp
    2626:	28 6e 61             	sub    %ch,0x61(%esi)
    2629:	6d                   	insl   (%dx),%es:(%edi)
    262a:	65                   	gs
    262b:	2c 70                	sub    $0x70,%al
    262d:	72 6f                	jb     269e <_end+0x68a>
    262f:	74 6f                	je     26a0 <_end+0x68c>
    2631:	2c 61                	sub    $0x61,%al
    2633:	6c                   	insb   (%dx),%es:(%edi)
    2634:	69 61 73 29 20 5f 5f 	imul   $0x5f5f2029,0x73(%ecx),%esp
    263b:	52                   	push   %edx
    263c:	45                   	inc    %ebp
    263d:	44                   	inc    %esp
    263e:	49                   	dec    %ecx
    263f:	52                   	push   %edx
    2640:	45                   	inc    %ebp
    2641:	43                   	inc    %ebx
    2642:	54                   	push   %esp
    2643:	5f                   	pop    %edi
    2644:	4e                   	dec    %esi
    2645:	54                   	push   %esp
    2646:	48                   	dec    %eax
    2647:	20 28                	and    %ch,(%eax)
    2649:	6e                   	outsb  %ds:(%esi),(%dx)
    264a:	61                   	popa   
    264b:	6d                   	insl   (%dx),%es:(%edi)
    264c:	65                   	gs
    264d:	2c 20                	sub    $0x20,%al
    264f:	70 72                	jo     26c3 <_end+0x6af>
    2651:	6f                   	outsl  %ds:(%esi),(%dx)
    2652:	74 6f                	je     26c3 <_end+0x6af>
    2654:	2c 20                	sub    $0x20,%al
    2656:	61                   	popa   
    2657:	6c                   	insb   (%dx),%es:(%edi)
    2658:	69 61 73 29 00 04 03 	imul   $0x3040029,0x73(%ecx),%esp
    265f:	85 03                	test   %eax,(%ebx)
    2661:	07                   	pop    %es
    2662:	03 04 06             	add    (%esi,%eax,1),%eax
    2665:	01 13                	add    %edx,(%ebx)
    2667:	5f                   	pop    %edi
    2668:	5f                   	pop    %edi
    2669:	57                   	push   %edi
    266a:	4f                   	dec    %edi
    266b:	52                   	push   %edx
    266c:	44                   	inc    %esp
    266d:	53                   	push   %ebx
    266e:	49                   	dec    %ecx
    266f:	5a                   	pop    %edx
    2670:	45                   	inc    %ebp
    2671:	20 33                	and    %dh,(%ebx)
    2673:	32 00                	xor    (%eax),%al
    2675:	04 03                	add    $0x3,%al
    2677:	07                   	pop    %es
    2678:	08 01                	or     %al,(%ecx)
    267a:	0a 5f 5f             	or     0x5f(%edi),%bl
    267d:	73 74                	jae    26f3 <_end+0x6df>
    267f:	75 62                	jne    26e3 <_end+0x6cf>
    2681:	5f                   	pop    %edi
    2682:	5f                   	pop    %edi
    2683:	5f                   	pop    %edi
    2684:	6b 65 72 6e          	imul   $0x6e,0x72(%ebp),%esp
    2688:	65                   	gs
    2689:	6c                   	insb   (%dx),%es:(%edi)
    268a:	5f                   	pop    %edi
    268b:	63 6f 73             	arpl   %bp,0x73(%edi)
    268e:	6c                   	insb   (%dx),%es:(%edi)
    268f:	20 00                	and    %al,(%eax)
    2691:	01 0b                	add    %ecx,(%ebx)
    2693:	5f                   	pop    %edi
    2694:	5f                   	pop    %edi
    2695:	73 74                	jae    270b <_end+0x6f7>
    2697:	75 62                	jne    26fb <_end+0x6e7>
    2699:	5f                   	pop    %edi
    269a:	5f                   	pop    %edi
    269b:	5f                   	pop    %edi
    269c:	6b 65 72 6e          	imul   $0x6e,0x72(%ebp),%esp
    26a0:	65                   	gs
    26a1:	6c                   	insb   (%dx),%es:(%edi)
    26a2:	5f                   	pop    %edi
    26a3:	73 69                	jae    270e <_end+0x6fa>
    26a5:	6e                   	outsb  %ds:(%esi),(%dx)
    26a6:	6c                   	insb   (%dx),%es:(%edi)
    26a7:	20 00                	and    %al,(%eax)
    26a9:	01 0c 5f             	add    %ecx,(%edi,%ebx,2)
    26ac:	5f                   	pop    %edi
    26ad:	73 74                	jae    2723 <_end+0x70f>
    26af:	75 62                	jne    2713 <_end+0x6ff>
    26b1:	5f                   	pop    %edi
    26b2:	5f                   	pop    %edi
    26b3:	5f                   	pop    %edi
    26b4:	6b 65 72 6e          	imul   $0x6e,0x72(%ebp),%esp
    26b8:	65                   	gs
    26b9:	6c                   	insb   (%dx),%es:(%edi)
    26ba:	5f                   	pop    %edi
    26bb:	74 61                	je     271e <_end+0x70a>
    26bd:	6e                   	outsb  %ds:(%esi),(%dx)
    26be:	6c                   	insb   (%dx),%es:(%edi)
    26bf:	20 00                	and    %al,(%eax)
    26c1:	01 0d 5f 5f 73 74    	add    %ecx,0x74735f5f
    26c7:	75 62                	jne    272b <_end+0x717>
    26c9:	5f                   	pop    %edi
    26ca:	63 68 66             	arpl   %bp,0x66(%eax)
    26cd:	6c                   	insb   (%dx),%es:(%edi)
    26ce:	61                   	popa   
    26cf:	67 73 20             	addr16 jae 26f2 <_end+0x6de>
    26d2:	00 01                	add    %al,(%ecx)
    26d4:	0e                   	push   %cs
    26d5:	5f                   	pop    %edi
    26d6:	5f                   	pop    %edi
    26d7:	73 74                	jae    274d <_end+0x739>
    26d9:	75 62                	jne    273d <_end+0x729>
    26db:	5f                   	pop    %edi
    26dc:	66 61                	popaw  
    26de:	74 74                	je     2754 <_end+0x740>
    26e0:	61                   	popa   
    26e1:	63 68 20             	arpl   %bp,0x20(%eax)
    26e4:	00 01                	add    %al,(%ecx)
    26e6:	0f 5f 5f 73          	maxps  0x73(%edi),%xmm3
    26ea:	74 75                	je     2761 <_end+0x74d>
    26ec:	62 5f 66             	bound  %ebx,0x66(%edi)
    26ef:	63 68 66             	arpl   %bp,0x66(%eax)
    26f2:	6c                   	insb   (%dx),%es:(%edi)
    26f3:	61                   	popa   
    26f4:	67 73 20             	addr16 jae 2717 <_end+0x703>
    26f7:	00 01                	add    %al,(%ecx)
    26f9:	10 5f 5f             	adc    %bl,0x5f(%edi)
    26fc:	73 74                	jae    2772 <_end+0x75e>
    26fe:	75 62                	jne    2762 <_end+0x74e>
    2700:	5f                   	pop    %edi
    2701:	66                   	data16
    2702:	64                   	fs
    2703:	65                   	gs
    2704:	74 61                	je     2767 <_end+0x753>
    2706:	63 68 20             	arpl   %bp,0x20(%eax)
    2709:	00 01                	add    %al,(%ecx)
    270b:	11 5f 5f             	adc    %ebx,0x5f(%edi)
    270e:	73 74                	jae    2784 <_end+0x770>
    2710:	75 62                	jne    2774 <_end+0x760>
    2712:	5f                   	pop    %edi
    2713:	67 74 74             	addr16 je 278a <_end+0x776>
    2716:	79 20                	jns    2738 <_end+0x724>
    2718:	00 01                	add    %al,(%ecx)
    271a:	12 5f 5f             	adc    0x5f(%edi),%bl
    271d:	73 74                	jae    2793 <_end+0x77f>
    271f:	75 62                	jne    2783 <_end+0x76f>
    2721:	5f                   	pop    %edi
    2722:	6c                   	insb   (%dx),%es:(%edi)
    2723:	63 68 6d             	arpl   %bp,0x6d(%eax)
    2726:	6f                   	outsl  %ds:(%esi),(%dx)
    2727:	64 20 00             	and    %al,%fs:(%eax)
    272a:	01 13                	add    %edx,(%ebx)
    272c:	5f                   	pop    %edi
    272d:	5f                   	pop    %edi
    272e:	73 74                	jae    27a4 <_end+0x790>
    2730:	75 62                	jne    2794 <_end+0x780>
    2732:	5f                   	pop    %edi
    2733:	72 65                	jb     279a <_end+0x786>
    2735:	76 6f                	jbe    27a6 <_end+0x792>
    2737:	6b 65 20 00          	imul   $0x0,0x20(%ebp),%esp
    273b:	01 14 5f             	add    %edx,(%edi,%ebx,2)
    273e:	5f                   	pop    %edi
    273f:	73 74                	jae    27b5 <_end+0x7a1>
    2741:	75 62                	jne    27a5 <_end+0x791>
    2743:	5f                   	pop    %edi
    2744:	73 65                	jae    27ab <_end+0x797>
    2746:	74 6c                	je     27b4 <_end+0x7a0>
    2748:	6f                   	outsl  %ds:(%esi),(%dx)
    2749:	67 69 6e 20 00 01 15 	imul   $0x5f150100,0x20(%bp),%ebp
    2750:	5f 
    2751:	5f                   	pop    %edi
    2752:	73 74                	jae    27c8 <_end+0x7b4>
    2754:	75 62                	jne    27b8 <_end+0x7a4>
    2756:	5f                   	pop    %edi
    2757:	73 69                	jae    27c2 <_end+0x7ae>
    2759:	67 72 65             	addr16 jb 27c1 <_end+0x7ad>
    275c:	74 75                	je     27d3 <_end+0x7bf>
    275e:	72 6e                	jb     27ce <_end+0x7ba>
    2760:	20 00                	and    %al,(%eax)
    2762:	01 16                	add    %edx,(%esi)
    2764:	5f                   	pop    %edi
    2765:	5f                   	pop    %edi
    2766:	73 74                	jae    27dc <_end+0x7c8>
    2768:	75 62                	jne    27cc <_end+0x7b8>
    276a:	5f                   	pop    %edi
    276b:	73 73                	jae    27e0 <_end+0x7cc>
    276d:	74 6b                	je     27da <_end+0x7c6>
    276f:	20 00                	and    %al,(%eax)
    2771:	01 17                	add    %edx,(%edi)
    2773:	5f                   	pop    %edi
    2774:	5f                   	pop    %edi
    2775:	73 74                	jae    27eb <_end+0x7d7>
    2777:	75 62                	jne    27db <_end+0x7c7>
    2779:	5f                   	pop    %edi
    277a:	73 74                	jae    27f0 <_end+0x7dc>
    277c:	74 79                	je     27f7 <_end+0x7e3>
    277e:	20 00                	and    %al,(%eax)
    2780:	04 04                	add    $0x4,%al
    2782:	04 01                	add    $0x1,%al
    2784:	20 5f 5f             	and    %bl,0x5f(%edi)
    2787:	6e                   	outsb  %ds:(%esi),(%dx)
    2788:	65                   	gs
    2789:	65                   	gs
    278a:	64                   	fs
    278b:	5f                   	pop    %edi
    278c:	73 69                	jae    27f7 <_end+0x7e3>
    278e:	7a 65                	jp     27f5 <_end+0x7e1>
    2790:	5f                   	pop    %edi
    2791:	74 20                	je     27b3 <_end+0x79f>
    2793:	00 01                	add    %al,(%ecx)
    2795:	21 5f 5f             	and    %ebx,0x5f(%edi)
    2798:	6e                   	outsb  %ds:(%esi),(%dx)
    2799:	65                   	gs
    279a:	65                   	gs
    279b:	64                   	fs
    279c:	5f                   	pop    %edi
    279d:	4e                   	dec    %esi
    279e:	55                   	push   %ebp
    279f:	4c                   	dec    %esp
    27a0:	4c                   	dec    %esp
    27a1:	20 00                	and    %al,(%eax)
    27a3:	03 22                	add    (%edx),%esp
    27a5:	09 01                	or     %eax,(%ecx)
    27a7:	bb 01 5f 5f 73       	mov    $0x735f5f01,%ebx
    27ac:	69 7a 65 5f 74 5f 5f 	imul   $0x5f5f745f,0x65(%edx),%edi
    27b3:	20 00                	and    %al,(%eax)
    27b5:	01 bc 01 5f 5f 53 49 	add    %edi,0x49535f5f(%ecx,%eax,1)
    27bc:	5a                   	pop    %edx
    27bd:	45                   	inc    %ebp
    27be:	5f                   	pop    %edi
    27bf:	54                   	push   %esp
    27c0:	5f                   	pop    %edi
    27c1:	5f                   	pop    %edi
    27c2:	20 00                	and    %al,(%eax)
    27c4:	01 bd 01 5f 53 49    	add    %edi,0x49535f01(%ebp)
    27ca:	5a                   	pop    %edx
    27cb:	45                   	inc    %ebp
    27cc:	5f                   	pop    %edi
    27cd:	54                   	push   %esp
    27ce:	20 00                	and    %al,(%eax)
    27d0:	01 be 01 5f 53 59    	add    %edi,0x59535f01(%esi)
    27d6:	53                   	push   %ebx
    27d7:	5f                   	pop    %edi
    27d8:	53                   	push   %ebx
    27d9:	49                   	dec    %ecx
    27da:	5a                   	pop    %edx
    27db:	45                   	inc    %ebp
    27dc:	5f                   	pop    %edi
    27dd:	54                   	push   %esp
    27de:	5f                   	pop    %edi
    27df:	48                   	dec    %eax
    27e0:	20 00                	and    %al,(%eax)
    27e2:	01 bf 01 5f 54 5f    	add    %edi,0x5f545f01(%edi)
    27e8:	53                   	push   %ebx
    27e9:	49                   	dec    %ecx
    27ea:	5a                   	pop    %edx
    27eb:	45                   	inc    %ebp
    27ec:	5f                   	pop    %edi
    27ed:	20 00                	and    %al,(%eax)
    27ef:	01 c0                	add    %eax,%eax
    27f1:	01 5f 54             	add    %ebx,0x54(%edi)
    27f4:	5f                   	pop    %edi
    27f5:	53                   	push   %ebx
    27f6:	49                   	dec    %ecx
    27f7:	5a                   	pop    %edx
    27f8:	45                   	inc    %ebp
    27f9:	20 00                	and    %al,(%eax)
    27fb:	01 c1                	add    %eax,%ecx
    27fd:	01 5f 5f             	add    %ebx,0x5f(%edi)
    2800:	53                   	push   %ebx
    2801:	49                   	dec    %ecx
    2802:	5a                   	pop    %edx
    2803:	45                   	inc    %ebp
    2804:	5f                   	pop    %edi
    2805:	54                   	push   %esp
    2806:	20 00                	and    %al,(%eax)
    2808:	01 c2                	add    %eax,%edx
    280a:	01 5f 53             	add    %ebx,0x53(%edi)
    280d:	49                   	dec    %ecx
    280e:	5a                   	pop    %edx
    280f:	45                   	inc    %ebp
    2810:	5f                   	pop    %edi
    2811:	54                   	push   %esp
    2812:	5f                   	pop    %edi
    2813:	20 00                	and    %al,(%eax)
    2815:	01 c3                	add    %eax,%ebx
    2817:	01 5f 42             	add    %ebx,0x42(%edi)
    281a:	53                   	push   %ebx
    281b:	44                   	inc    %esp
    281c:	5f                   	pop    %edi
    281d:	53                   	push   %ebx
    281e:	49                   	dec    %ecx
    281f:	5a                   	pop    %edx
    2820:	45                   	inc    %ebp
    2821:	5f                   	pop    %edi
    2822:	54                   	push   %esp
    2823:	5f                   	pop    %edi
    2824:	20 00                	and    %al,(%eax)
    2826:	01 c4                	add    %eax,%esp
    2828:	01 5f 53             	add    %ebx,0x53(%edi)
    282b:	49                   	dec    %ecx
    282c:	5a                   	pop    %edx
    282d:	45                   	inc    %ebp
    282e:	5f                   	pop    %edi
    282f:	54                   	push   %esp
    2830:	5f                   	pop    %edi
    2831:	44                   	inc    %esp
    2832:	45                   	inc    %ebp
    2833:	46                   	inc    %esi
    2834:	49                   	dec    %ecx
    2835:	4e                   	dec    %esi
    2836:	45                   	inc    %ebp
    2837:	44                   	inc    %esp
    2838:	5f                   	pop    %edi
    2839:	20 00                	and    %al,(%eax)
    283b:	01 c5                	add    %eax,%ebp
    283d:	01 5f 53             	add    %ebx,0x53(%edi)
    2840:	49                   	dec    %ecx
    2841:	5a                   	pop    %edx
    2842:	45                   	inc    %ebp
    2843:	5f                   	pop    %edi
    2844:	54                   	push   %esp
    2845:	5f                   	pop    %edi
    2846:	44                   	inc    %esp
    2847:	45                   	inc    %ebp
    2848:	46                   	inc    %esi
    2849:	49                   	dec    %ecx
    284a:	4e                   	dec    %esi
    284b:	45                   	inc    %ebp
    284c:	44                   	inc    %esp
    284d:	20 00                	and    %al,(%eax)
    284f:	01 c6                	add    %eax,%esi
    2851:	01 5f 42             	add    %ebx,0x42(%edi)
    2854:	53                   	push   %ebx
    2855:	44                   	inc    %esp
    2856:	5f                   	pop    %edi
    2857:	53                   	push   %ebx
    2858:	49                   	dec    %ecx
    2859:	5a                   	pop    %edx
    285a:	45                   	inc    %ebp
    285b:	5f                   	pop    %edi
    285c:	54                   	push   %esp
    285d:	5f                   	pop    %edi
    285e:	44                   	inc    %esp
    285f:	45                   	inc    %ebp
    2860:	46                   	inc    %esi
    2861:	49                   	dec    %ecx
    2862:	4e                   	dec    %esi
    2863:	45                   	inc    %ebp
    2864:	44                   	inc    %esp
    2865:	5f                   	pop    %edi
    2866:	20 00                	and    %al,(%eax)
    2868:	01 c7                	add    %eax,%edi
    286a:	01 5f 53             	add    %ebx,0x53(%edi)
    286d:	49                   	dec    %ecx
    286e:	5a                   	pop    %edx
    286f:	45                   	inc    %ebp
    2870:	5f                   	pop    %edi
    2871:	54                   	push   %esp
    2872:	5f                   	pop    %edi
    2873:	44                   	inc    %esp
    2874:	45                   	inc    %ebp
    2875:	43                   	inc    %ebx
    2876:	4c                   	dec    %esp
    2877:	41                   	inc    %ecx
    2878:	52                   	push   %edx
    2879:	45                   	inc    %ebp
    287a:	44                   	inc    %esp
    287b:	20 00                	and    %al,(%eax)
    287d:	01 c8                	add    %ecx,%eax
    287f:	01 5f 5f             	add    %ebx,0x5f(%edi)
    2882:	5f                   	pop    %edi
    2883:	69 6e 74 5f 73 69 7a 	imul   $0x7a69735f,0x74(%esi),%ebp
    288a:	65                   	gs
    288b:	5f                   	pop    %edi
    288c:	74 5f                	je     28ed <_end+0x8d9>
    288e:	68 20 00 01 c9       	push   $0xc9010020
    2893:	01 5f 47             	add    %ebx,0x47(%edi)
    2896:	43                   	inc    %ebx
    2897:	43                   	inc    %ebx
    2898:	5f                   	pop    %edi
    2899:	53                   	push   %ebx
    289a:	49                   	dec    %ecx
    289b:	5a                   	pop    %edx
    289c:	45                   	inc    %ebp
    289d:	5f                   	pop    %edi
    289e:	54                   	push   %esp
    289f:	20 00                	and    %al,(%eax)
    28a1:	01 ca                	add    %ecx,%edx
    28a3:	01 5f 53             	add    %ebx,0x53(%edi)
    28a6:	49                   	dec    %ecx
    28a7:	5a                   	pop    %edx
    28a8:	45                   	inc    %ebp
    28a9:	54                   	push   %esp
    28aa:	5f                   	pop    %edi
    28ab:	20 00                	and    %al,(%eax)
    28ad:	01 ce                	add    %ecx,%esi
    28af:	01 5f 5f             	add    %ebx,0x5f(%edi)
    28b2:	73 69                	jae    291d <_end+0x909>
    28b4:	7a 65                	jp     291b <_end+0x907>
    28b6:	5f                   	pop    %edi
    28b7:	74 20                	je     28d9 <_end+0x8c5>
    28b9:	00 02                	add    %al,(%edx)
    28bb:	ea 01 5f 5f 6e 65 65 	ljmp   $0x6565,$0x6e5f5f01
    28c2:	64                   	fs
    28c3:	5f                   	pop    %edi
    28c4:	73 69                	jae    292f <_end+0x91b>
    28c6:	7a 65                	jp     292d <_end+0x919>
    28c8:	5f                   	pop    %edi
    28c9:	74 00                	je     28cb <_end+0x8b7>
    28cb:	02 8d 03 4e 55 4c    	add    0x4c554e03(%ebp),%cl
    28d1:	4c                   	dec    %esp
    28d2:	00 01                	add    %al,(%ecx)
    28d4:	92                   	xchg   %eax,%edx
    28d5:	03 4e 55             	add    0x55(%esi),%ecx
    28d8:	4c                   	dec    %esp
    28d9:	4c                   	dec    %esp
    28da:	20 28                	and    %ch,(%eax)
    28dc:	28 76 6f             	sub    %dh,0x6f(%esi)
    28df:	69 64 20 2a 29 30 29 	imul   $0x293029,0x2a(%eax,%eiz,1),%esp
    28e6:	00 
    28e7:	02 98 03 5f 5f 6e    	add    0x6e5f5f03(%eax),%bl
    28ed:	65                   	gs
    28ee:	65                   	gs
    28ef:	64                   	fs
    28f0:	5f                   	pop    %edi
    28f1:	4e                   	dec    %esi
    28f2:	55                   	push   %ebp
    28f3:	4c                   	dec    %esp
    28f4:	4c                   	dec    %esp
    28f5:	00 04 03             	add    %al,(%ebx,%eax,1)
    28f8:	24 0a                	and    $0xa,%al
    28fa:	01 19                	add    %ebx,(%ecx)
    28fc:	5f                   	pop    %edi
    28fd:	42                   	inc    %edx
    28fe:	49                   	dec    %ecx
    28ff:	54                   	push   %esp
    2900:	53                   	push   %ebx
    2901:	5f                   	pop    %edi
    2902:	54                   	push   %esp
    2903:	59                   	pop    %ecx
    2904:	50                   	push   %eax
    2905:	45                   	inc    %ebp
    2906:	53                   	push   %ebx
    2907:	5f                   	pop    %edi
    2908:	48                   	dec    %eax
    2909:	20 31                	and    %dh,(%ecx)
    290b:	00 03                	add    %al,(%ebx)
    290d:	1c 06                	sbb    $0x6,%al
    290f:	01 13                	add    %edx,(%ebx)
    2911:	5f                   	pop    %edi
    2912:	5f                   	pop    %edi
    2913:	57                   	push   %edi
    2914:	4f                   	dec    %edi
    2915:	52                   	push   %edx
    2916:	44                   	inc    %esp
    2917:	53                   	push   %ebx
    2918:	49                   	dec    %ecx
    2919:	5a                   	pop    %edx
    291a:	45                   	inc    %ebp
    291b:	20 33                	and    %dh,(%ebx)
    291d:	32 00                	xor    (%eax),%al
    291f:	04 01                	add    $0x1,%al
    2921:	63 5f 5f             	arpl   %bx,0x5f(%edi)
    2924:	53                   	push   %ebx
    2925:	31 36                	xor    %esi,(%esi)
    2927:	5f                   	pop    %edi
    2928:	54                   	push   %esp
    2929:	59                   	pop    %ecx
    292a:	50                   	push   %eax
    292b:	45                   	inc    %ebp
    292c:	20 73 68             	and    %dh,0x68(%ebx)
    292f:	6f                   	outsl  %ds:(%esi),(%dx)
    2930:	72 74                	jb     29a6 <_end+0x992>
    2932:	20 69 6e             	and    %ch,0x6e(%ecx)
    2935:	74 00                	je     2937 <_end+0x923>
    2937:	01 64 5f 5f          	add    %esp,0x5f(%edi,%ebx,2)
    293b:	55                   	push   %ebp
    293c:	31 36                	xor    %esi,(%esi)
    293e:	5f                   	pop    %edi
    293f:	54                   	push   %esp
    2940:	59                   	pop    %ecx
    2941:	50                   	push   %eax
    2942:	45                   	inc    %ebp
    2943:	20 75 6e             	and    %dh,0x6e(%ebp)
    2946:	73 69                	jae    29b1 <_end+0x99d>
    2948:	67 6e                	outsb  %ds:(%si),(%dx)
    294a:	65 64 20 73 68       	gs and %dh,%fs:%gs:0x68(%ebx)
    294f:	6f                   	outsl  %ds:(%esi),(%dx)
    2950:	72 74                	jb     29c6 <_end+0x9b2>
    2952:	20 69 6e             	and    %ch,0x6e(%ecx)
    2955:	74 00                	je     2957 <_end+0x943>
    2957:	01 65 5f             	add    %esp,0x5f(%ebp)
    295a:	5f                   	pop    %edi
    295b:	53                   	push   %ebx
    295c:	33 32                	xor    (%edx),%esi
    295e:	5f                   	pop    %edi
    295f:	54                   	push   %esp
    2960:	59                   	pop    %ecx
    2961:	50                   	push   %eax
    2962:	45                   	inc    %ebp
    2963:	20 69 6e             	and    %ch,0x6e(%ecx)
    2966:	74 00                	je     2968 <_end+0x954>
    2968:	01 66 5f             	add    %esp,0x5f(%esi)
    296b:	5f                   	pop    %edi
    296c:	55                   	push   %ebp
    296d:	33 32                	xor    (%edx),%esi
    296f:	5f                   	pop    %edi
    2970:	54                   	push   %esp
    2971:	59                   	pop    %ecx
    2972:	50                   	push   %eax
    2973:	45                   	inc    %ebp
    2974:	20 75 6e             	and    %dh,0x6e(%ebp)
    2977:	73 69                	jae    29e2 <_end+0x9ce>
    2979:	67 6e                	outsb  %ds:(%si),(%dx)
    297b:	65 64 20 69 6e       	gs and %ch,%fs:%gs:0x6e(%ecx)
    2980:	74 00                	je     2982 <_end+0x96e>
    2982:	01 67 5f             	add    %esp,0x5f(%edi)
    2985:	5f                   	pop    %edi
    2986:	53                   	push   %ebx
    2987:	4c                   	dec    %esp
    2988:	4f                   	dec    %edi
    2989:	4e                   	dec    %esi
    298a:	47                   	inc    %edi
    298b:	57                   	push   %edi
    298c:	4f                   	dec    %edi
    298d:	52                   	push   %edx
    298e:	44                   	inc    %esp
    298f:	5f                   	pop    %edi
    2990:	54                   	push   %esp
    2991:	59                   	pop    %ecx
    2992:	50                   	push   %eax
    2993:	45                   	inc    %ebp
    2994:	20 6c 6f 6e          	and    %ch,0x6e(%edi,%ebp,2)
    2998:	67 20 69 6e          	and    %ch,0x6e(%bx,%di)
    299c:	74 00                	je     299e <_end+0x98a>
    299e:	01 68 5f             	add    %ebp,0x5f(%eax)
    29a1:	5f                   	pop    %edi
    29a2:	55                   	push   %ebp
    29a3:	4c                   	dec    %esp
    29a4:	4f                   	dec    %edi
    29a5:	4e                   	dec    %esi
    29a6:	47                   	inc    %edi
    29a7:	57                   	push   %edi
    29a8:	4f                   	dec    %edi
    29a9:	52                   	push   %edx
    29aa:	44                   	inc    %esp
    29ab:	5f                   	pop    %edi
    29ac:	54                   	push   %esp
    29ad:	59                   	pop    %ecx
    29ae:	50                   	push   %eax
    29af:	45                   	inc    %ebp
    29b0:	20 75 6e             	and    %dh,0x6e(%ebp)
    29b3:	73 69                	jae    2a1e <_end+0xa0a>
    29b5:	67 6e                	outsb  %ds:(%si),(%dx)
    29b7:	65 64 20 6c 6f 6e    	gs and %ch,%fs:%gs:0x6e(%edi,%ebp,2)
    29bd:	67 20 69 6e          	and    %ch,0x6e(%bx,%di)
    29c1:	74 00                	je     29c3 <_end+0x9af>
    29c3:	01 6a 5f             	add    %ebp,0x5f(%edx)
    29c6:	5f                   	pop    %edi
    29c7:	53                   	push   %ebx
    29c8:	51                   	push   %ecx
    29c9:	55                   	push   %ebp
    29ca:	41                   	inc    %ecx
    29cb:	44                   	inc    %esp
    29cc:	5f                   	pop    %edi
    29cd:	54                   	push   %esp
    29ce:	59                   	pop    %ecx
    29cf:	50                   	push   %eax
    29d0:	45                   	inc    %ebp
    29d1:	20 5f 5f             	and    %bl,0x5f(%edi)
    29d4:	71 75                	jno    2a4b <_end+0xa37>
    29d6:	61                   	popa   
    29d7:	64                   	fs
    29d8:	5f                   	pop    %edi
    29d9:	74 00                	je     29db <_end+0x9c7>
    29db:	01 6b 5f             	add    %ebp,0x5f(%ebx)
    29de:	5f                   	pop    %edi
    29df:	55                   	push   %ebp
    29e0:	51                   	push   %ecx
    29e1:	55                   	push   %ebp
    29e2:	41                   	inc    %ecx
    29e3:	44                   	inc    %esp
    29e4:	5f                   	pop    %edi
    29e5:	54                   	push   %esp
    29e6:	59                   	pop    %ecx
    29e7:	50                   	push   %eax
    29e8:	45                   	inc    %ebp
    29e9:	20 5f 5f             	and    %bl,0x5f(%edi)
    29ec:	75 5f                	jne    2a4d <_end+0xa39>
    29ee:	71 75                	jno    2a65 <_end+0xa51>
    29f0:	61                   	popa   
    29f1:	64                   	fs
    29f2:	5f                   	pop    %edi
    29f3:	74 00                	je     29f5 <_end+0x9e1>
    29f5:	01 6c 5f 5f          	add    %ebp,0x5f(%edi,%ebx,2)
    29f9:	53                   	push   %ebx
    29fa:	57                   	push   %edi
    29fb:	4f                   	dec    %edi
    29fc:	52                   	push   %edx
    29fd:	44                   	inc    %esp
    29fe:	5f                   	pop    %edi
    29ff:	54                   	push   %esp
    2a00:	59                   	pop    %ecx
    2a01:	50                   	push   %eax
    2a02:	45                   	inc    %ebp
    2a03:	20 69 6e             	and    %ch,0x6e(%ecx)
    2a06:	74 00                	je     2a08 <_end+0x9f4>
    2a08:	01 6d 5f             	add    %ebp,0x5f(%ebp)
    2a0b:	5f                   	pop    %edi
    2a0c:	55                   	push   %ebp
    2a0d:	57                   	push   %edi
    2a0e:	4f                   	dec    %edi
    2a0f:	52                   	push   %edx
    2a10:	44                   	inc    %esp
    2a11:	5f                   	pop    %edi
    2a12:	54                   	push   %esp
    2a13:	59                   	pop    %ecx
    2a14:	50                   	push   %eax
    2a15:	45                   	inc    %ebp
    2a16:	20 75 6e             	and    %dh,0x6e(%ebp)
    2a19:	73 69                	jae    2a84 <_end+0xa70>
    2a1b:	67 6e                	outsb  %ds:(%si),(%dx)
    2a1d:	65 64 20 69 6e       	gs and %ch,%fs:%gs:0x6e(%ecx)
    2a22:	74 00                	je     2a24 <_end+0xa10>
    2a24:	01 6e 5f             	add    %ebp,0x5f(%esi)
    2a27:	5f                   	pop    %edi
    2a28:	53                   	push   %ebx
    2a29:	4c                   	dec    %esp
    2a2a:	4f                   	dec    %edi
    2a2b:	4e                   	dec    %esi
    2a2c:	47                   	inc    %edi
    2a2d:	33 32                	xor    (%edx),%esi
    2a2f:	5f                   	pop    %edi
    2a30:	54                   	push   %esp
    2a31:	59                   	pop    %ecx
    2a32:	50                   	push   %eax
    2a33:	45                   	inc    %ebp
    2a34:	20 6c 6f 6e          	and    %ch,0x6e(%edi,%ebp,2)
    2a38:	67 20 69 6e          	and    %ch,0x6e(%bx,%di)
    2a3c:	74 00                	je     2a3e <_end+0xa2a>
    2a3e:	01 6f 5f             	add    %ebp,0x5f(%edi)
    2a41:	5f                   	pop    %edi
    2a42:	55                   	push   %ebp
    2a43:	4c                   	dec    %esp
    2a44:	4f                   	dec    %edi
    2a45:	4e                   	dec    %esi
    2a46:	47                   	inc    %edi
    2a47:	33 32                	xor    (%edx),%esi
    2a49:	5f                   	pop    %edi
    2a4a:	54                   	push   %esp
    2a4b:	59                   	pop    %ecx
    2a4c:	50                   	push   %eax
    2a4d:	45                   	inc    %ebp
    2a4e:	20 75 6e             	and    %dh,0x6e(%ebp)
    2a51:	73 69                	jae    2abc <_end+0xaa8>
    2a53:	67 6e                	outsb  %ds:(%si),(%dx)
    2a55:	65 64 20 6c 6f 6e    	gs and %ch,%fs:%gs:0x6e(%edi,%ebp,2)
    2a5b:	67 20 69 6e          	and    %ch,0x6e(%bx,%di)
    2a5f:	74 00                	je     2a61 <_end+0xa4d>
    2a61:	01 70 5f             	add    %esi,0x5f(%eax)
    2a64:	5f                   	pop    %edi
    2a65:	53                   	push   %ebx
    2a66:	36                   	ss
    2a67:	34 5f                	xor    $0x5f,%al
    2a69:	54                   	push   %esp
    2a6a:	59                   	pop    %ecx
    2a6b:	50                   	push   %eax
    2a6c:	45                   	inc    %ebp
    2a6d:	20 5f 5f             	and    %bl,0x5f(%edi)
    2a70:	71 75                	jno    2ae7 <_end+0xad3>
    2a72:	61                   	popa   
    2a73:	64                   	fs
    2a74:	5f                   	pop    %edi
    2a75:	74 00                	je     2a77 <_end+0xa63>
    2a77:	01 71 5f             	add    %esi,0x5f(%ecx)
    2a7a:	5f                   	pop    %edi
    2a7b:	55                   	push   %ebp
    2a7c:	36                   	ss
    2a7d:	34 5f                	xor    $0x5f,%al
    2a7f:	54                   	push   %esp
    2a80:	59                   	pop    %ecx
    2a81:	50                   	push   %eax
    2a82:	45                   	inc    %ebp
    2a83:	20 5f 5f             	and    %bl,0x5f(%edi)
    2a86:	75 5f                	jne    2ae7 <_end+0xad3>
    2a88:	71 75                	jno    2aff <_end+0xaeb>
    2a8a:	61                   	popa   
    2a8b:	64                   	fs
    2a8c:	5f                   	pop    %edi
    2a8d:	74 00                	je     2a8f <_end+0xa7b>
    2a8f:	01 74 5f 5f          	add    %esi,0x5f(%edi,%ebx,2)
    2a93:	53                   	push   %ebx
    2a94:	54                   	push   %esp
    2a95:	44                   	inc    %esp
    2a96:	5f                   	pop    %edi
    2a97:	54                   	push   %esp
    2a98:	59                   	pop    %ecx
    2a99:	50                   	push   %eax
    2a9a:	45                   	inc    %ebp
    2a9b:	20 5f 5f             	and    %bl,0x5f(%edi)
    2a9e:	65                   	gs
    2a9f:	78 74                	js     2b15 <_end+0xb01>
    2aa1:	65 6e                	outsb  %gs:(%esi),(%dx)
    2aa3:	73 69                	jae    2b0e <_end+0xafa>
    2aa5:	6f                   	outsl  %ds:(%esi),(%dx)
    2aa6:	6e                   	outsb  %ds:(%esi),(%dx)
    2aa7:	5f                   	pop    %edi
    2aa8:	5f                   	pop    %edi
    2aa9:	20 74 79 70          	and    %dh,0x70(%ecx,%edi,2)
    2aad:	65                   	gs
    2aae:	64                   	fs
    2aaf:	65                   	gs
    2ab0:	66                   	data16
    2ab1:	00 03                	add    %al,(%ebx)
    2ab3:	83 01 0b             	addl   $0xb,(%ecx)
    2ab6:	01 19                	add    %ebx,(%ecx)
    2ab8:	5f                   	pop    %edi
    2ab9:	42                   	inc    %edx
    2aba:	49                   	dec    %ecx
    2abb:	54                   	push   %esp
    2abc:	53                   	push   %ebx
    2abd:	5f                   	pop    %edi
    2abe:	54                   	push   %esp
    2abf:	59                   	pop    %ecx
    2ac0:	50                   	push   %eax
    2ac1:	45                   	inc    %ebp
    2ac2:	53                   	push   %ebx
    2ac3:	49                   	dec    %ecx
    2ac4:	5a                   	pop    %edx
    2ac5:	45                   	inc    %ebp
    2ac6:	53                   	push   %ebx
    2ac7:	5f                   	pop    %edi
    2ac8:	48                   	dec    %eax
    2ac9:	20 31                	and    %dh,(%ecx)
    2acb:	00 01                	add    %al,(%ecx)
    2acd:	1e                   	push   %ds
    2ace:	5f                   	pop    %edi
    2acf:	5f                   	pop    %edi
    2ad0:	44                   	inc    %esp
    2ad1:	45                   	inc    %ebp
    2ad2:	56                   	push   %esi
    2ad3:	5f                   	pop    %edi
    2ad4:	54                   	push   %esp
    2ad5:	5f                   	pop    %edi
    2ad6:	54                   	push   %esp
    2ad7:	59                   	pop    %ecx
    2ad8:	50                   	push   %eax
    2ad9:	45                   	inc    %ebp
    2ada:	20 5f 5f             	and    %bl,0x5f(%edi)
    2add:	55                   	push   %ebp
    2ade:	51                   	push   %ecx
    2adf:	55                   	push   %ebp
    2ae0:	41                   	inc    %ecx
    2ae1:	44                   	inc    %esp
    2ae2:	5f                   	pop    %edi
    2ae3:	54                   	push   %esp
    2ae4:	59                   	pop    %ecx
    2ae5:	50                   	push   %eax
    2ae6:	45                   	inc    %ebp
    2ae7:	00 01                	add    %al,(%ecx)
    2ae9:	1f                   	pop    %ds
    2aea:	5f                   	pop    %edi
    2aeb:	5f                   	pop    %edi
    2aec:	55                   	push   %ebp
    2aed:	49                   	dec    %ecx
    2aee:	44                   	inc    %esp
    2aef:	5f                   	pop    %edi
    2af0:	54                   	push   %esp
    2af1:	5f                   	pop    %edi
    2af2:	54                   	push   %esp
    2af3:	59                   	pop    %ecx
    2af4:	50                   	push   %eax
    2af5:	45                   	inc    %ebp
    2af6:	20 5f 5f             	and    %bl,0x5f(%edi)
    2af9:	55                   	push   %ebp
    2afa:	33 32                	xor    (%edx),%esi
    2afc:	5f                   	pop    %edi
    2afd:	54                   	push   %esp
    2afe:	59                   	pop    %ecx
    2aff:	50                   	push   %eax
    2b00:	45                   	inc    %ebp
    2b01:	00 01                	add    %al,(%ecx)
    2b03:	20 5f 5f             	and    %bl,0x5f(%edi)
    2b06:	47                   	inc    %edi
    2b07:	49                   	dec    %ecx
    2b08:	44                   	inc    %esp
    2b09:	5f                   	pop    %edi
    2b0a:	54                   	push   %esp
    2b0b:	5f                   	pop    %edi
    2b0c:	54                   	push   %esp
    2b0d:	59                   	pop    %ecx
    2b0e:	50                   	push   %eax
    2b0f:	45                   	inc    %ebp
    2b10:	20 5f 5f             	and    %bl,0x5f(%edi)
    2b13:	55                   	push   %ebp
    2b14:	33 32                	xor    (%edx),%esi
    2b16:	5f                   	pop    %edi
    2b17:	54                   	push   %esp
    2b18:	59                   	pop    %ecx
    2b19:	50                   	push   %eax
    2b1a:	45                   	inc    %ebp
    2b1b:	00 01                	add    %al,(%ecx)
    2b1d:	21 5f 5f             	and    %ebx,0x5f(%edi)
    2b20:	49                   	dec    %ecx
    2b21:	4e                   	dec    %esi
    2b22:	4f                   	dec    %edi
    2b23:	5f                   	pop    %edi
    2b24:	54                   	push   %esp
    2b25:	5f                   	pop    %edi
    2b26:	54                   	push   %esp
    2b27:	59                   	pop    %ecx
    2b28:	50                   	push   %eax
    2b29:	45                   	inc    %ebp
    2b2a:	20 5f 5f             	and    %bl,0x5f(%edi)
    2b2d:	55                   	push   %ebp
    2b2e:	4c                   	dec    %esp
    2b2f:	4f                   	dec    %edi
    2b30:	4e                   	dec    %esi
    2b31:	47                   	inc    %edi
    2b32:	57                   	push   %edi
    2b33:	4f                   	dec    %edi
    2b34:	52                   	push   %edx
    2b35:	44                   	inc    %esp
    2b36:	5f                   	pop    %edi
    2b37:	54                   	push   %esp
    2b38:	59                   	pop    %ecx
    2b39:	50                   	push   %eax
    2b3a:	45                   	inc    %ebp
    2b3b:	00 01                	add    %al,(%ecx)
    2b3d:	22 5f 5f             	and    0x5f(%edi),%bl
    2b40:	49                   	dec    %ecx
    2b41:	4e                   	dec    %esi
    2b42:	4f                   	dec    %edi
    2b43:	36                   	ss
    2b44:	34 5f                	xor    $0x5f,%al
    2b46:	54                   	push   %esp
    2b47:	5f                   	pop    %edi
    2b48:	54                   	push   %esp
    2b49:	59                   	pop    %ecx
    2b4a:	50                   	push   %eax
    2b4b:	45                   	inc    %ebp
    2b4c:	20 5f 5f             	and    %bl,0x5f(%edi)
    2b4f:	55                   	push   %ebp
    2b50:	51                   	push   %ecx
    2b51:	55                   	push   %ebp
    2b52:	41                   	inc    %ecx
    2b53:	44                   	inc    %esp
    2b54:	5f                   	pop    %edi
    2b55:	54                   	push   %esp
    2b56:	59                   	pop    %ecx
    2b57:	50                   	push   %eax
    2b58:	45                   	inc    %ebp
    2b59:	00 01                	add    %al,(%ecx)
    2b5b:	23 5f 5f             	and    0x5f(%edi),%ebx
    2b5e:	4d                   	dec    %ebp
    2b5f:	4f                   	dec    %edi
    2b60:	44                   	inc    %esp
    2b61:	45                   	inc    %ebp
    2b62:	5f                   	pop    %edi
    2b63:	54                   	push   %esp
    2b64:	5f                   	pop    %edi
    2b65:	54                   	push   %esp
    2b66:	59                   	pop    %ecx
    2b67:	50                   	push   %eax
    2b68:	45                   	inc    %ebp
    2b69:	20 5f 5f             	and    %bl,0x5f(%edi)
    2b6c:	55                   	push   %ebp
    2b6d:	33 32                	xor    (%edx),%esi
    2b6f:	5f                   	pop    %edi
    2b70:	54                   	push   %esp
    2b71:	59                   	pop    %ecx
    2b72:	50                   	push   %eax
    2b73:	45                   	inc    %ebp
    2b74:	00 01                	add    %al,(%ecx)
    2b76:	24 5f                	and    $0x5f,%al
    2b78:	5f                   	pop    %edi
    2b79:	4e                   	dec    %esi
    2b7a:	4c                   	dec    %esp
    2b7b:	49                   	dec    %ecx
    2b7c:	4e                   	dec    %esi
    2b7d:	4b                   	dec    %ebx
    2b7e:	5f                   	pop    %edi
    2b7f:	54                   	push   %esp
    2b80:	5f                   	pop    %edi
    2b81:	54                   	push   %esp
    2b82:	59                   	pop    %ecx
    2b83:	50                   	push   %eax
    2b84:	45                   	inc    %ebp
    2b85:	20 5f 5f             	and    %bl,0x5f(%edi)
    2b88:	55                   	push   %ebp
    2b89:	57                   	push   %edi
    2b8a:	4f                   	dec    %edi
    2b8b:	52                   	push   %edx
    2b8c:	44                   	inc    %esp
    2b8d:	5f                   	pop    %edi
    2b8e:	54                   	push   %esp
    2b8f:	59                   	pop    %ecx
    2b90:	50                   	push   %eax
    2b91:	45                   	inc    %ebp
    2b92:	00 01                	add    %al,(%ecx)
    2b94:	25 5f 5f 4f 46       	and    $0x464f5f5f,%eax
    2b99:	46                   	inc    %esi
    2b9a:	5f                   	pop    %edi
    2b9b:	54                   	push   %esp
    2b9c:	5f                   	pop    %edi
    2b9d:	54                   	push   %esp
    2b9e:	59                   	pop    %ecx
    2b9f:	50                   	push   %eax
    2ba0:	45                   	inc    %ebp
    2ba1:	20 5f 5f             	and    %bl,0x5f(%edi)
    2ba4:	53                   	push   %ebx
    2ba5:	4c                   	dec    %esp
    2ba6:	4f                   	dec    %edi
    2ba7:	4e                   	dec    %esi
    2ba8:	47                   	inc    %edi
    2ba9:	57                   	push   %edi
    2baa:	4f                   	dec    %edi
    2bab:	52                   	push   %edx
    2bac:	44                   	inc    %esp
    2bad:	5f                   	pop    %edi
    2bae:	54                   	push   %esp
    2baf:	59                   	pop    %ecx
    2bb0:	50                   	push   %eax
    2bb1:	45                   	inc    %ebp
    2bb2:	00 01                	add    %al,(%ecx)
    2bb4:	26                   	es
    2bb5:	5f                   	pop    %edi
    2bb6:	5f                   	pop    %edi
    2bb7:	4f                   	dec    %edi
    2bb8:	46                   	inc    %esi
    2bb9:	46                   	inc    %esi
    2bba:	36                   	ss
    2bbb:	34 5f                	xor    $0x5f,%al
    2bbd:	54                   	push   %esp
    2bbe:	5f                   	pop    %edi
    2bbf:	54                   	push   %esp
    2bc0:	59                   	pop    %ecx
    2bc1:	50                   	push   %eax
    2bc2:	45                   	inc    %ebp
    2bc3:	20 5f 5f             	and    %bl,0x5f(%edi)
    2bc6:	53                   	push   %ebx
    2bc7:	51                   	push   %ecx
    2bc8:	55                   	push   %ebp
    2bc9:	41                   	inc    %ecx
    2bca:	44                   	inc    %esp
    2bcb:	5f                   	pop    %edi
    2bcc:	54                   	push   %esp
    2bcd:	59                   	pop    %ecx
    2bce:	50                   	push   %eax
    2bcf:	45                   	inc    %ebp
    2bd0:	00 01                	add    %al,(%ecx)
    2bd2:	27                   	daa    
    2bd3:	5f                   	pop    %edi
    2bd4:	5f                   	pop    %edi
    2bd5:	50                   	push   %eax
    2bd6:	49                   	dec    %ecx
    2bd7:	44                   	inc    %esp
    2bd8:	5f                   	pop    %edi
    2bd9:	54                   	push   %esp
    2bda:	5f                   	pop    %edi
    2bdb:	54                   	push   %esp
    2bdc:	59                   	pop    %ecx
    2bdd:	50                   	push   %eax
    2bde:	45                   	inc    %ebp
    2bdf:	20 5f 5f             	and    %bl,0x5f(%edi)
    2be2:	53                   	push   %ebx
    2be3:	33 32                	xor    (%edx),%esi
    2be5:	5f                   	pop    %edi
    2be6:	54                   	push   %esp
    2be7:	59                   	pop    %ecx
    2be8:	50                   	push   %eax
    2be9:	45                   	inc    %ebp
    2bea:	00 01                	add    %al,(%ecx)
    2bec:	28 5f 5f             	sub    %bl,0x5f(%edi)
    2bef:	52                   	push   %edx
    2bf0:	4c                   	dec    %esp
    2bf1:	49                   	dec    %ecx
    2bf2:	4d                   	dec    %ebp
    2bf3:	5f                   	pop    %edi
    2bf4:	54                   	push   %esp
    2bf5:	5f                   	pop    %edi
    2bf6:	54                   	push   %esp
    2bf7:	59                   	pop    %ecx
    2bf8:	50                   	push   %eax
    2bf9:	45                   	inc    %ebp
    2bfa:	20 5f 5f             	and    %bl,0x5f(%edi)
    2bfd:	55                   	push   %ebp
    2bfe:	4c                   	dec    %esp
    2bff:	4f                   	dec    %edi
    2c00:	4e                   	dec    %esi
    2c01:	47                   	inc    %edi
    2c02:	57                   	push   %edi
    2c03:	4f                   	dec    %edi
    2c04:	52                   	push   %edx
    2c05:	44                   	inc    %esp
    2c06:	5f                   	pop    %edi
    2c07:	54                   	push   %esp
    2c08:	59                   	pop    %ecx
    2c09:	50                   	push   %eax
    2c0a:	45                   	inc    %ebp
    2c0b:	00 01                	add    %al,(%ecx)
    2c0d:	29 5f 5f             	sub    %ebx,0x5f(%edi)
    2c10:	52                   	push   %edx
    2c11:	4c                   	dec    %esp
    2c12:	49                   	dec    %ecx
    2c13:	4d                   	dec    %ebp
    2c14:	36                   	ss
    2c15:	34 5f                	xor    $0x5f,%al
    2c17:	54                   	push   %esp
    2c18:	5f                   	pop    %edi
    2c19:	54                   	push   %esp
    2c1a:	59                   	pop    %ecx
    2c1b:	50                   	push   %eax
    2c1c:	45                   	inc    %ebp
    2c1d:	20 5f 5f             	and    %bl,0x5f(%edi)
    2c20:	55                   	push   %ebp
    2c21:	51                   	push   %ecx
    2c22:	55                   	push   %ebp
    2c23:	41                   	inc    %ecx
    2c24:	44                   	inc    %esp
    2c25:	5f                   	pop    %edi
    2c26:	54                   	push   %esp
    2c27:	59                   	pop    %ecx
    2c28:	50                   	push   %eax
    2c29:	45                   	inc    %ebp
    2c2a:	00 01                	add    %al,(%ecx)
    2c2c:	2a 5f 5f             	sub    0x5f(%edi),%bl
    2c2f:	42                   	inc    %edx
    2c30:	4c                   	dec    %esp
    2c31:	4b                   	dec    %ebx
    2c32:	43                   	inc    %ebx
    2c33:	4e                   	dec    %esi
    2c34:	54                   	push   %esp
    2c35:	5f                   	pop    %edi
    2c36:	54                   	push   %esp
    2c37:	5f                   	pop    %edi
    2c38:	54                   	push   %esp
    2c39:	59                   	pop    %ecx
    2c3a:	50                   	push   %eax
    2c3b:	45                   	inc    %ebp
    2c3c:	20 5f 5f             	and    %bl,0x5f(%edi)
    2c3f:	53                   	push   %ebx
    2c40:	4c                   	dec    %esp
    2c41:	4f                   	dec    %edi
    2c42:	4e                   	dec    %esi
    2c43:	47                   	inc    %edi
    2c44:	57                   	push   %edi
    2c45:	4f                   	dec    %edi
    2c46:	52                   	push   %edx
    2c47:	44                   	inc    %esp
    2c48:	5f                   	pop    %edi
    2c49:	54                   	push   %esp
    2c4a:	59                   	pop    %ecx
    2c4b:	50                   	push   %eax
    2c4c:	45                   	inc    %ebp
    2c4d:	00 01                	add    %al,(%ecx)
    2c4f:	2b 5f 5f             	sub    0x5f(%edi),%ebx
    2c52:	42                   	inc    %edx
    2c53:	4c                   	dec    %esp
    2c54:	4b                   	dec    %ebx
    2c55:	43                   	inc    %ebx
    2c56:	4e                   	dec    %esi
    2c57:	54                   	push   %esp
    2c58:	36                   	ss
    2c59:	34 5f                	xor    $0x5f,%al
    2c5b:	54                   	push   %esp
    2c5c:	5f                   	pop    %edi
    2c5d:	54                   	push   %esp
    2c5e:	59                   	pop    %ecx
    2c5f:	50                   	push   %eax
    2c60:	45                   	inc    %ebp
    2c61:	20 5f 5f             	and    %bl,0x5f(%edi)
    2c64:	53                   	push   %ebx
    2c65:	51                   	push   %ecx
    2c66:	55                   	push   %ebp
    2c67:	41                   	inc    %ecx
    2c68:	44                   	inc    %esp
    2c69:	5f                   	pop    %edi
    2c6a:	54                   	push   %esp
    2c6b:	59                   	pop    %ecx
    2c6c:	50                   	push   %eax
    2c6d:	45                   	inc    %ebp
    2c6e:	00 01                	add    %al,(%ecx)
    2c70:	2c 5f                	sub    $0x5f,%al
    2c72:	5f                   	pop    %edi
    2c73:	46                   	inc    %esi
    2c74:	53                   	push   %ebx
    2c75:	42                   	inc    %edx
    2c76:	4c                   	dec    %esp
    2c77:	4b                   	dec    %ebx
    2c78:	43                   	inc    %ebx
    2c79:	4e                   	dec    %esi
    2c7a:	54                   	push   %esp
    2c7b:	5f                   	pop    %edi
    2c7c:	54                   	push   %esp
    2c7d:	5f                   	pop    %edi
    2c7e:	54                   	push   %esp
    2c7f:	59                   	pop    %ecx
    2c80:	50                   	push   %eax
    2c81:	45                   	inc    %ebp
    2c82:	20 5f 5f             	and    %bl,0x5f(%edi)
    2c85:	55                   	push   %ebp
    2c86:	4c                   	dec    %esp
    2c87:	4f                   	dec    %edi
    2c88:	4e                   	dec    %esi
    2c89:	47                   	inc    %edi
    2c8a:	57                   	push   %edi
    2c8b:	4f                   	dec    %edi
    2c8c:	52                   	push   %edx
    2c8d:	44                   	inc    %esp
    2c8e:	5f                   	pop    %edi
    2c8f:	54                   	push   %esp
    2c90:	59                   	pop    %ecx
    2c91:	50                   	push   %eax
    2c92:	45                   	inc    %ebp
    2c93:	00 01                	add    %al,(%ecx)
    2c95:	2d 5f 5f 46 53       	sub    $0x53465f5f,%eax
    2c9a:	42                   	inc    %edx
    2c9b:	4c                   	dec    %esp
    2c9c:	4b                   	dec    %ebx
    2c9d:	43                   	inc    %ebx
    2c9e:	4e                   	dec    %esi
    2c9f:	54                   	push   %esp
    2ca0:	36                   	ss
    2ca1:	34 5f                	xor    $0x5f,%al
    2ca3:	54                   	push   %esp
    2ca4:	5f                   	pop    %edi
    2ca5:	54                   	push   %esp
    2ca6:	59                   	pop    %ecx
    2ca7:	50                   	push   %eax
    2ca8:	45                   	inc    %ebp
    2ca9:	20 5f 5f             	and    %bl,0x5f(%edi)
    2cac:	55                   	push   %ebp
    2cad:	51                   	push   %ecx
    2cae:	55                   	push   %ebp
    2caf:	41                   	inc    %ecx
    2cb0:	44                   	inc    %esp
    2cb1:	5f                   	pop    %edi
    2cb2:	54                   	push   %esp
    2cb3:	59                   	pop    %ecx
    2cb4:	50                   	push   %eax
    2cb5:	45                   	inc    %ebp
    2cb6:	00 01                	add    %al,(%ecx)
    2cb8:	2e                   	cs
    2cb9:	5f                   	pop    %edi
    2cba:	5f                   	pop    %edi
    2cbb:	46                   	inc    %esi
    2cbc:	53                   	push   %ebx
    2cbd:	46                   	inc    %esi
    2cbe:	49                   	dec    %ecx
    2cbf:	4c                   	dec    %esp
    2cc0:	43                   	inc    %ebx
    2cc1:	4e                   	dec    %esi
    2cc2:	54                   	push   %esp
    2cc3:	5f                   	pop    %edi
    2cc4:	54                   	push   %esp
    2cc5:	5f                   	pop    %edi
    2cc6:	54                   	push   %esp
    2cc7:	59                   	pop    %ecx
    2cc8:	50                   	push   %eax
    2cc9:	45                   	inc    %ebp
    2cca:	20 5f 5f             	and    %bl,0x5f(%edi)
    2ccd:	55                   	push   %ebp
    2cce:	4c                   	dec    %esp
    2ccf:	4f                   	dec    %edi
    2cd0:	4e                   	dec    %esi
    2cd1:	47                   	inc    %edi
    2cd2:	57                   	push   %edi
    2cd3:	4f                   	dec    %edi
    2cd4:	52                   	push   %edx
    2cd5:	44                   	inc    %esp
    2cd6:	5f                   	pop    %edi
    2cd7:	54                   	push   %esp
    2cd8:	59                   	pop    %ecx
    2cd9:	50                   	push   %eax
    2cda:	45                   	inc    %ebp
    2cdb:	00 01                	add    %al,(%ecx)
    2cdd:	2f                   	das    
    2cde:	5f                   	pop    %edi
    2cdf:	5f                   	pop    %edi
    2ce0:	46                   	inc    %esi
    2ce1:	53                   	push   %ebx
    2ce2:	46                   	inc    %esi
    2ce3:	49                   	dec    %ecx
    2ce4:	4c                   	dec    %esp
    2ce5:	43                   	inc    %ebx
    2ce6:	4e                   	dec    %esi
    2ce7:	54                   	push   %esp
    2ce8:	36                   	ss
    2ce9:	34 5f                	xor    $0x5f,%al
    2ceb:	54                   	push   %esp
    2cec:	5f                   	pop    %edi
    2ced:	54                   	push   %esp
    2cee:	59                   	pop    %ecx
    2cef:	50                   	push   %eax
    2cf0:	45                   	inc    %ebp
    2cf1:	20 5f 5f             	and    %bl,0x5f(%edi)
    2cf4:	55                   	push   %ebp
    2cf5:	51                   	push   %ecx
    2cf6:	55                   	push   %ebp
    2cf7:	41                   	inc    %ecx
    2cf8:	44                   	inc    %esp
    2cf9:	5f                   	pop    %edi
    2cfa:	54                   	push   %esp
    2cfb:	59                   	pop    %ecx
    2cfc:	50                   	push   %eax
    2cfd:	45                   	inc    %ebp
    2cfe:	00 01                	add    %al,(%ecx)
    2d00:	30 5f 5f             	xor    %bl,0x5f(%edi)
    2d03:	49                   	dec    %ecx
    2d04:	44                   	inc    %esp
    2d05:	5f                   	pop    %edi
    2d06:	54                   	push   %esp
    2d07:	5f                   	pop    %edi
    2d08:	54                   	push   %esp
    2d09:	59                   	pop    %ecx
    2d0a:	50                   	push   %eax
    2d0b:	45                   	inc    %ebp
    2d0c:	20 5f 5f             	and    %bl,0x5f(%edi)
    2d0f:	55                   	push   %ebp
    2d10:	33 32                	xor    (%edx),%esi
    2d12:	5f                   	pop    %edi
    2d13:	54                   	push   %esp
    2d14:	59                   	pop    %ecx
    2d15:	50                   	push   %eax
    2d16:	45                   	inc    %ebp
    2d17:	00 01                	add    %al,(%ecx)
    2d19:	31 5f 5f             	xor    %ebx,0x5f(%edi)
    2d1c:	43                   	inc    %ebx
    2d1d:	4c                   	dec    %esp
    2d1e:	4f                   	dec    %edi
    2d1f:	43                   	inc    %ebx
    2d20:	4b                   	dec    %ebx
    2d21:	5f                   	pop    %edi
    2d22:	54                   	push   %esp
    2d23:	5f                   	pop    %edi
    2d24:	54                   	push   %esp
    2d25:	59                   	pop    %ecx
    2d26:	50                   	push   %eax
    2d27:	45                   	inc    %ebp
    2d28:	20 5f 5f             	and    %bl,0x5f(%edi)
    2d2b:	53                   	push   %ebx
    2d2c:	4c                   	dec    %esp
    2d2d:	4f                   	dec    %edi
    2d2e:	4e                   	dec    %esi
    2d2f:	47                   	inc    %edi
    2d30:	57                   	push   %edi
    2d31:	4f                   	dec    %edi
    2d32:	52                   	push   %edx
    2d33:	44                   	inc    %esp
    2d34:	5f                   	pop    %edi
    2d35:	54                   	push   %esp
    2d36:	59                   	pop    %ecx
    2d37:	50                   	push   %eax
    2d38:	45                   	inc    %ebp
    2d39:	00 01                	add    %al,(%ecx)
    2d3b:	32 5f 5f             	xor    0x5f(%edi),%bl
    2d3e:	54                   	push   %esp
    2d3f:	49                   	dec    %ecx
    2d40:	4d                   	dec    %ebp
    2d41:	45                   	inc    %ebp
    2d42:	5f                   	pop    %edi
    2d43:	54                   	push   %esp
    2d44:	5f                   	pop    %edi
    2d45:	54                   	push   %esp
    2d46:	59                   	pop    %ecx
    2d47:	50                   	push   %eax
    2d48:	45                   	inc    %ebp
    2d49:	20 5f 5f             	and    %bl,0x5f(%edi)
    2d4c:	53                   	push   %ebx
    2d4d:	4c                   	dec    %esp
    2d4e:	4f                   	dec    %edi
    2d4f:	4e                   	dec    %esi
    2d50:	47                   	inc    %edi
    2d51:	57                   	push   %edi
    2d52:	4f                   	dec    %edi
    2d53:	52                   	push   %edx
    2d54:	44                   	inc    %esp
    2d55:	5f                   	pop    %edi
    2d56:	54                   	push   %esp
    2d57:	59                   	pop    %ecx
    2d58:	50                   	push   %eax
    2d59:	45                   	inc    %ebp
    2d5a:	00 01                	add    %al,(%ecx)
    2d5c:	33 5f 5f             	xor    0x5f(%edi),%ebx
    2d5f:	55                   	push   %ebp
    2d60:	53                   	push   %ebx
    2d61:	45                   	inc    %ebp
    2d62:	43                   	inc    %ebx
    2d63:	4f                   	dec    %edi
    2d64:	4e                   	dec    %esi
    2d65:	44                   	inc    %esp
    2d66:	53                   	push   %ebx
    2d67:	5f                   	pop    %edi
    2d68:	54                   	push   %esp
    2d69:	5f                   	pop    %edi
    2d6a:	54                   	push   %esp
    2d6b:	59                   	pop    %ecx
    2d6c:	50                   	push   %eax
    2d6d:	45                   	inc    %ebp
    2d6e:	20 5f 5f             	and    %bl,0x5f(%edi)
    2d71:	55                   	push   %ebp
    2d72:	33 32                	xor    (%edx),%esi
    2d74:	5f                   	pop    %edi
    2d75:	54                   	push   %esp
    2d76:	59                   	pop    %ecx
    2d77:	50                   	push   %eax
    2d78:	45                   	inc    %ebp
    2d79:	00 01                	add    %al,(%ecx)
    2d7b:	34 5f                	xor    $0x5f,%al
    2d7d:	5f                   	pop    %edi
    2d7e:	53                   	push   %ebx
    2d7f:	55                   	push   %ebp
    2d80:	53                   	push   %ebx
    2d81:	45                   	inc    %ebp
    2d82:	43                   	inc    %ebx
    2d83:	4f                   	dec    %edi
    2d84:	4e                   	dec    %esi
    2d85:	44                   	inc    %esp
    2d86:	53                   	push   %ebx
    2d87:	5f                   	pop    %edi
    2d88:	54                   	push   %esp
    2d89:	5f                   	pop    %edi
    2d8a:	54                   	push   %esp
    2d8b:	59                   	pop    %ecx
    2d8c:	50                   	push   %eax
    2d8d:	45                   	inc    %ebp
    2d8e:	20 5f 5f             	and    %bl,0x5f(%edi)
    2d91:	53                   	push   %ebx
    2d92:	4c                   	dec    %esp
    2d93:	4f                   	dec    %edi
    2d94:	4e                   	dec    %esi
    2d95:	47                   	inc    %edi
    2d96:	57                   	push   %edi
    2d97:	4f                   	dec    %edi
    2d98:	52                   	push   %edx
    2d99:	44                   	inc    %esp
    2d9a:	5f                   	pop    %edi
    2d9b:	54                   	push   %esp
    2d9c:	59                   	pop    %ecx
    2d9d:	50                   	push   %eax
    2d9e:	45                   	inc    %ebp
    2d9f:	00 01                	add    %al,(%ecx)
    2da1:	35 5f 5f 44 41       	xor    $0x41445f5f,%eax
    2da6:	44                   	inc    %esp
    2da7:	44                   	inc    %esp
    2da8:	52                   	push   %edx
    2da9:	5f                   	pop    %edi
    2daa:	54                   	push   %esp
    2dab:	5f                   	pop    %edi
    2dac:	54                   	push   %esp
    2dad:	59                   	pop    %ecx
    2dae:	50                   	push   %eax
    2daf:	45                   	inc    %ebp
    2db0:	20 5f 5f             	and    %bl,0x5f(%edi)
    2db3:	53                   	push   %ebx
    2db4:	33 32                	xor    (%edx),%esi
    2db6:	5f                   	pop    %edi
    2db7:	54                   	push   %esp
    2db8:	59                   	pop    %ecx
    2db9:	50                   	push   %eax
    2dba:	45                   	inc    %ebp
    2dbb:	00 01                	add    %al,(%ecx)
    2dbd:	36                   	ss
    2dbe:	5f                   	pop    %edi
    2dbf:	5f                   	pop    %edi
    2dc0:	53                   	push   %ebx
    2dc1:	57                   	push   %edi
    2dc2:	42                   	inc    %edx
    2dc3:	4c                   	dec    %esp
    2dc4:	4b                   	dec    %ebx
    2dc5:	5f                   	pop    %edi
    2dc6:	54                   	push   %esp
    2dc7:	5f                   	pop    %edi
    2dc8:	54                   	push   %esp
    2dc9:	59                   	pop    %ecx
    2dca:	50                   	push   %eax
    2dcb:	45                   	inc    %ebp
    2dcc:	20 5f 5f             	and    %bl,0x5f(%edi)
    2dcf:	53                   	push   %ebx
    2dd0:	4c                   	dec    %esp
    2dd1:	4f                   	dec    %edi
    2dd2:	4e                   	dec    %esi
    2dd3:	47                   	inc    %edi
    2dd4:	57                   	push   %edi
    2dd5:	4f                   	dec    %edi
    2dd6:	52                   	push   %edx
    2dd7:	44                   	inc    %esp
    2dd8:	5f                   	pop    %edi
    2dd9:	54                   	push   %esp
    2dda:	59                   	pop    %ecx
    2ddb:	50                   	push   %eax
    2ddc:	45                   	inc    %ebp
    2ddd:	00 01                	add    %al,(%ecx)
    2ddf:	37                   	aaa    
    2de0:	5f                   	pop    %edi
    2de1:	5f                   	pop    %edi
    2de2:	4b                   	dec    %ebx
    2de3:	45                   	inc    %ebp
    2de4:	59                   	pop    %ecx
    2de5:	5f                   	pop    %edi
    2de6:	54                   	push   %esp
    2de7:	5f                   	pop    %edi
    2de8:	54                   	push   %esp
    2de9:	59                   	pop    %ecx
    2dea:	50                   	push   %eax
    2deb:	45                   	inc    %ebp
    2dec:	20 5f 5f             	and    %bl,0x5f(%edi)
    2def:	53                   	push   %ebx
    2df0:	33 32                	xor    (%edx),%esi
    2df2:	5f                   	pop    %edi
    2df3:	54                   	push   %esp
    2df4:	59                   	pop    %ecx
    2df5:	50                   	push   %eax
    2df6:	45                   	inc    %ebp
    2df7:	00 01                	add    %al,(%ecx)
    2df9:	38 5f 5f             	cmp    %bl,0x5f(%edi)
    2dfc:	43                   	inc    %ebx
    2dfd:	4c                   	dec    %esp
    2dfe:	4f                   	dec    %edi
    2dff:	43                   	inc    %ebx
    2e00:	4b                   	dec    %ebx
    2e01:	49                   	dec    %ecx
    2e02:	44                   	inc    %esp
    2e03:	5f                   	pop    %edi
    2e04:	54                   	push   %esp
    2e05:	5f                   	pop    %edi
    2e06:	54                   	push   %esp
    2e07:	59                   	pop    %ecx
    2e08:	50                   	push   %eax
    2e09:	45                   	inc    %ebp
    2e0a:	20 5f 5f             	and    %bl,0x5f(%edi)
    2e0d:	53                   	push   %ebx
    2e0e:	33 32                	xor    (%edx),%esi
    2e10:	5f                   	pop    %edi
    2e11:	54                   	push   %esp
    2e12:	59                   	pop    %ecx
    2e13:	50                   	push   %eax
    2e14:	45                   	inc    %ebp
    2e15:	00 01                	add    %al,(%ecx)
    2e17:	39 5f 5f             	cmp    %ebx,0x5f(%edi)
    2e1a:	54                   	push   %esp
    2e1b:	49                   	dec    %ecx
    2e1c:	4d                   	dec    %ebp
    2e1d:	45                   	inc    %ebp
    2e1e:	52                   	push   %edx
    2e1f:	5f                   	pop    %edi
    2e20:	54                   	push   %esp
    2e21:	5f                   	pop    %edi
    2e22:	54                   	push   %esp
    2e23:	59                   	pop    %ecx
    2e24:	50                   	push   %eax
    2e25:	45                   	inc    %ebp
    2e26:	20 76 6f             	and    %dh,0x6f(%esi)
    2e29:	69 64 20 2a 00 01 3a 	imul   $0x5f3a0100,0x2a(%eax,%eiz,1),%esp
    2e30:	5f 
    2e31:	5f                   	pop    %edi
    2e32:	42                   	inc    %edx
    2e33:	4c                   	dec    %esp
    2e34:	4b                   	dec    %ebx
    2e35:	53                   	push   %ebx
    2e36:	49                   	dec    %ecx
    2e37:	5a                   	pop    %edx
    2e38:	45                   	inc    %ebp
    2e39:	5f                   	pop    %edi
    2e3a:	54                   	push   %esp
    2e3b:	5f                   	pop    %edi
    2e3c:	54                   	push   %esp
    2e3d:	59                   	pop    %ecx
    2e3e:	50                   	push   %eax
    2e3f:	45                   	inc    %ebp
    2e40:	20 5f 5f             	and    %bl,0x5f(%edi)
    2e43:	53                   	push   %ebx
    2e44:	4c                   	dec    %esp
    2e45:	4f                   	dec    %edi
    2e46:	4e                   	dec    %esi
    2e47:	47                   	inc    %edi
    2e48:	57                   	push   %edi
    2e49:	4f                   	dec    %edi
    2e4a:	52                   	push   %edx
    2e4b:	44                   	inc    %esp
    2e4c:	5f                   	pop    %edi
    2e4d:	54                   	push   %esp
    2e4e:	59                   	pop    %ecx
    2e4f:	50                   	push   %eax
    2e50:	45                   	inc    %ebp
    2e51:	00 01                	add    %al,(%ecx)
    2e53:	3b 5f 5f             	cmp    0x5f(%edi),%ebx
    2e56:	46                   	inc    %esi
    2e57:	53                   	push   %ebx
    2e58:	49                   	dec    %ecx
    2e59:	44                   	inc    %esp
    2e5a:	5f                   	pop    %edi
    2e5b:	54                   	push   %esp
    2e5c:	5f                   	pop    %edi
    2e5d:	54                   	push   %esp
    2e5e:	59                   	pop    %ecx
    2e5f:	50                   	push   %eax
    2e60:	45                   	inc    %ebp
    2e61:	20 73 74             	and    %dh,0x74(%ebx)
    2e64:	72 75                	jb     2edb <_end+0xec7>
    2e66:	63 74 20 7b          	arpl   %si,0x7b(%eax,%eiz,1)
    2e6a:	20 69 6e             	and    %ch,0x6e(%ecx)
    2e6d:	74 20                	je     2e8f <_end+0xe7b>
    2e6f:	5f                   	pop    %edi
    2e70:	5f                   	pop    %edi
    2e71:	76 61                	jbe    2ed4 <_end+0xec0>
    2e73:	6c                   	insb   (%dx),%es:(%edi)
    2e74:	5b                   	pop    %ebx
    2e75:	32 5d 3b             	xor    0x3b(%ebp),%bl
    2e78:	20 7d 00             	and    %bh,0x0(%ebp)
    2e7b:	01 3c 5f             	add    %edi,(%edi,%ebx,2)
    2e7e:	5f                   	pop    %edi
    2e7f:	53                   	push   %ebx
    2e80:	53                   	push   %ebx
    2e81:	49                   	dec    %ecx
    2e82:	5a                   	pop    %edx
    2e83:	45                   	inc    %ebp
    2e84:	5f                   	pop    %edi
    2e85:	54                   	push   %esp
    2e86:	5f                   	pop    %edi
    2e87:	54                   	push   %esp
    2e88:	59                   	pop    %ecx
    2e89:	50                   	push   %eax
    2e8a:	45                   	inc    %ebp
    2e8b:	20 5f 5f             	and    %bl,0x5f(%edi)
    2e8e:	53                   	push   %ebx
    2e8f:	57                   	push   %edi
    2e90:	4f                   	dec    %edi
    2e91:	52                   	push   %edx
    2e92:	44                   	inc    %esp
    2e93:	5f                   	pop    %edi
    2e94:	54                   	push   %esp
    2e95:	59                   	pop    %ecx
    2e96:	50                   	push   %eax
    2e97:	45                   	inc    %ebp
    2e98:	00 01                	add    %al,(%ecx)
    2e9a:	3f                   	aas    
    2e9b:	5f                   	pop    %edi
    2e9c:	5f                   	pop    %edi
    2e9d:	46                   	inc    %esi
    2e9e:	44                   	inc    %esp
    2e9f:	5f                   	pop    %edi
    2ea0:	53                   	push   %ebx
    2ea1:	45                   	inc    %ebp
    2ea2:	54                   	push   %esp
    2ea3:	53                   	push   %ebx
    2ea4:	49                   	dec    %ecx
    2ea5:	5a                   	pop    %edx
    2ea6:	45                   	inc    %ebp
    2ea7:	20 31                	and    %dh,(%ecx)
    2ea9:	30 32                	xor    %dh,(%edx)
    2eab:	34 00                	xor    $0x0,%al
    2ead:	04 02                	add    $0x2,%al
    2eaf:	c3                   	ret    
    2eb0:	01 5f 5f             	add    %ebx,0x5f(%edi)
    2eb3:	53                   	push   %ebx
    2eb4:	54                   	push   %esp
    2eb5:	44                   	inc    %esp
    2eb6:	5f                   	pop    %edi
    2eb7:	54                   	push   %esp
    2eb8:	59                   	pop    %ecx
    2eb9:	50                   	push   %eax
    2eba:	45                   	inc    %ebp
    2ebb:	00 04 01             	add    %al,(%ecx,%eax,1)
    2ebe:	25 5f 5f 6e 65       	and    $0x656e5f5f,%eax
    2ec3:	65                   	gs
    2ec4:	64                   	fs
    2ec5:	5f                   	pop    %edi
    2ec6:	46                   	inc    %esi
    2ec7:	49                   	dec    %ecx
    2ec8:	4c                   	dec    %esp
    2ec9:	45                   	inc    %ebp
    2eca:	20 00                	and    %al,(%eax)
    2ecc:	01 26                	add    %esp,(%esi)
    2ece:	5f                   	pop    %edi
    2ecf:	5f                   	pop    %edi
    2ed0:	6e                   	outsb  %ds:(%esi),(%dx)
    2ed1:	65                   	gs
    2ed2:	65                   	gs
    2ed3:	64                   	fs
    2ed4:	5f                   	pop    %edi
    2ed5:	5f                   	pop    %edi
    2ed6:	5f                   	pop    %edi
    2ed7:	46                   	inc    %esi
    2ed8:	49                   	dec    %ecx
    2ed9:	4c                   	dec    %esp
    2eda:	45                   	inc    %ebp
    2edb:	20 00                	and    %al,(%eax)
    2edd:	01 39                	add    %edi,(%ecx)
    2edf:	5f                   	pop    %edi
    2ee0:	5f                   	pop    %edi
    2ee1:	46                   	inc    %esi
    2ee2:	49                   	dec    %ecx
    2ee3:	4c                   	dec    %esp
    2ee4:	45                   	inc    %ebp
    2ee5:	5f                   	pop    %edi
    2ee6:	64 65 66 69 6e 65 64 	fs imul $0x2064,%fs:%gs:0x65(%esi),%bp
    2eed:	20 
    2eee:	31 00                	xor    %eax,(%eax)
    2ef0:	02 3b                	add    (%ebx),%bh
    2ef2:	5f                   	pop    %edi
    2ef3:	5f                   	pop    %edi
    2ef4:	6e                   	outsb  %ds:(%esi),(%dx)
    2ef5:	65                   	gs
    2ef6:	65                   	gs
    2ef7:	64                   	fs
    2ef8:	5f                   	pop    %edi
    2ef9:	46                   	inc    %esi
    2efa:	49                   	dec    %ecx
    2efb:	4c                   	dec    %esp
    2efc:	45                   	inc    %ebp
    2efd:	00 01                	add    %al,(%ecx)
    2eff:	43                   	inc    %ebx
    2f00:	5f                   	pop    %edi
    2f01:	5f                   	pop    %edi
    2f02:	5f                   	pop    %edi
    2f03:	5f                   	pop    %edi
    2f04:	46                   	inc    %esi
    2f05:	49                   	dec    %ecx
    2f06:	4c                   	dec    %esp
    2f07:	45                   	inc    %ebp
    2f08:	5f                   	pop    %edi
    2f09:	64 65 66 69 6e 65 64 	fs imul $0x2064,%fs:%gs:0x65(%esi),%bp
    2f10:	20 
    2f11:	31 00                	xor    %eax,(%eax)
    2f13:	02 45 5f             	add    0x5f(%ebp),%al
    2f16:	5f                   	pop    %edi
    2f17:	6e                   	outsb  %ds:(%esi),(%dx)
    2f18:	65                   	gs
    2f19:	65                   	gs
    2f1a:	64                   	fs
    2f1b:	5f                   	pop    %edi
    2f1c:	5f                   	pop    %edi
    2f1d:	5f                   	pop    %edi
    2f1e:	46                   	inc    %esi
    2f1f:	49                   	dec    %ecx
    2f20:	4c                   	dec    %esp
    2f21:	45                   	inc    %ebp
    2f22:	00 01                	add    %al,(%ecx)
    2f24:	49                   	dec    %ecx
    2f25:	5f                   	pop    %edi
    2f26:	53                   	push   %ebx
    2f27:	54                   	push   %esp
    2f28:	44                   	inc    %esp
    2f29:	49                   	dec    %ecx
    2f2a:	4f                   	dec    %edi
    2f2b:	5f                   	pop    %edi
    2f2c:	55                   	push   %ebp
    2f2d:	53                   	push   %ebx
    2f2e:	45                   	inc    %ebp
    2f2f:	53                   	push   %ebx
    2f30:	5f                   	pop    %edi
    2f31:	49                   	dec    %ecx
    2f32:	4f                   	dec    %edi
    2f33:	53                   	push   %ebx
    2f34:	54                   	push   %esp
    2f35:	52                   	push   %edx
    2f36:	45                   	inc    %ebp
    2f37:	41                   	inc    %ecx
    2f38:	4d                   	dec    %ebp
    2f39:	20 00                	and    %al,(%eax)
    2f3b:	03 4b 0c             	add    0xc(%ebx),%ecx
    2f3e:	01 1e                	add    %ebx,(%esi)
    2f40:	5f                   	pop    %edi
    2f41:	49                   	dec    %ecx
    2f42:	4f                   	dec    %edi
    2f43:	5f                   	pop    %edi
    2f44:	53                   	push   %ebx
    2f45:	54                   	push   %esp
    2f46:	44                   	inc    %esp
    2f47:	49                   	dec    %ecx
    2f48:	4f                   	dec    %edi
    2f49:	5f                   	pop    %edi
    2f4a:	48                   	dec    %eax
    2f4b:	20 00                	and    %al,(%eax)
    2f4d:	03 20                	add    (%eax),%esp
    2f4f:	0d 01 05 5f 47       	or     $0x475f0501,%eax
    2f54:	5f                   	pop    %edi
    2f55:	63 6f 6e             	arpl   %bp,0x6e(%edi)
    2f58:	66 69 67 5f 68 20    	imul   $0x2068,0x5f(%edi),%sp
    2f5e:	31 00                	xor    %eax,(%eax)
    2f60:	01 0a                	add    %ecx,(%edx)
    2f62:	5f                   	pop    %edi
    2f63:	5f                   	pop    %edi
    2f64:	6e                   	outsb  %ds:(%esi),(%dx)
    2f65:	65                   	gs
    2f66:	65                   	gs
    2f67:	64                   	fs
    2f68:	5f                   	pop    %edi
    2f69:	73 69                	jae    2fd4 <_end+0xfc0>
    2f6b:	7a 65                	jp     2fd2 <_end+0xfbe>
    2f6d:	5f                   	pop    %edi
    2f6e:	74 20                	je     2f90 <_end+0xf7c>
    2f70:	00 01                	add    %al,(%ecx)
    2f72:	0e                   	push   %cs
    2f73:	5f                   	pop    %edi
    2f74:	5f                   	pop    %edi
    2f75:	6e                   	outsb  %ds:(%esi),(%dx)
    2f76:	65                   	gs
    2f77:	65                   	gs
    2f78:	64                   	fs
    2f79:	5f                   	pop    %edi
    2f7a:	4e                   	dec    %esi
    2f7b:	55                   	push   %ebp
    2f7c:	4c                   	dec    %esp
    2f7d:	4c                   	dec    %esp
    2f7e:	20 00                	and    %al,(%eax)
    2f80:	03 0f                	add    (%edi),%ecx
    2f82:	09 02                	or     %eax,(%edx)
    2f84:	ea 01 5f 5f 6e 65 65 	ljmp   $0x6565,$0x6e5f5f01
    2f8b:	64                   	fs
    2f8c:	5f                   	pop    %edi
    2f8d:	73 69                	jae    2ff8 <_end+0xfe4>
    2f8f:	7a 65                	jp     2ff6 <_end+0xfe2>
    2f91:	5f                   	pop    %edi
    2f92:	74 00                	je     2f94 <_end+0xf80>
    2f94:	02 8d 03 4e 55 4c    	add    0x4c554e03(%ebp),%cl
    2f9a:	4c                   	dec    %esp
    2f9b:	00 01                	add    %al,(%ecx)
    2f9d:	92                   	xchg   %eax,%edx
    2f9e:	03 4e 55             	add    0x55(%esi),%ecx
    2fa1:	4c                   	dec    %esp
    2fa2:	4c                   	dec    %esp
    2fa3:	20 28                	and    %ch,(%eax)
    2fa5:	28 76 6f             	sub    %dh,0x6f(%esi)
    2fa8:	69 64 20 2a 29 30 29 	imul   $0x293029,0x2a(%eax,%eiz,1),%esp
    2faf:	00 
    2fb0:	02 98 03 5f 5f 6e    	add    0x6e5f5f03(%eax),%bl
    2fb6:	65                   	gs
    2fb7:	65                   	gs
    2fb8:	64                   	fs
    2fb9:	5f                   	pop    %edi
    2fba:	4e                   	dec    %esi
    2fbb:	55                   	push   %ebp
    2fbc:	4c                   	dec    %esp
    2fbd:	4c                   	dec    %esp
    2fbe:	00 04 01             	add    %al,(%ecx,%eax,1)
    2fc1:	10 5f 5f             	adc    %bl,0x5f(%edi)
    2fc4:	6e                   	outsb  %ds:(%esi),(%dx)
    2fc5:	65                   	gs
    2fc6:	65                   	gs
    2fc7:	64                   	fs
    2fc8:	5f                   	pop    %edi
    2fc9:	6d                   	insl   (%dx),%es:(%edi)
    2fca:	62 73 74             	bound  %esi,0x74(%ebx)
    2fcd:	61                   	popa   
    2fce:	74 65                	je     3035 <_end+0x1021>
    2fd0:	5f                   	pop    %edi
    2fd1:	74 20                	je     2ff3 <_end+0xfdf>
    2fd3:	00 03                	add    %al,(%ebx)
    2fd5:	14 0e                	adc    $0xe,%al
    2fd7:	01 51 5f             	add    %edx,0x5f(%ecx)
    2fda:	5f                   	pop    %edi
    2fdb:	6d                   	insl   (%dx),%es:(%edi)
    2fdc:	62 73 74             	bound  %esi,0x74(%ebx)
    2fdf:	61                   	popa   
    2fe0:	74 65                	je     3047 <_end+0x1033>
    2fe2:	5f                   	pop    %edi
    2fe3:	74 5f                	je     3044 <_end+0x1030>
    2fe5:	64 65 66 69 6e 65 64 	fs imul $0x2064,%fs:%gs:0x65(%esi),%bp
    2fec:	20 
    2fed:	31 00                	xor    %eax,(%eax)
    2fef:	02 61 5f             	add    0x5f(%ecx),%ah
    2ff2:	5f                   	pop    %edi
    2ff3:	6e                   	outsb  %ds:(%esi),(%dx)
    2ff4:	65                   	gs
    2ff5:	65                   	gs
    2ff6:	64                   	fs
    2ff7:	5f                   	pop    %edi
    2ff8:	6d                   	insl   (%dx),%es:(%edi)
    2ff9:	62 73 74             	bound  %esi,0x74(%ebx)
    2ffc:	61                   	popa   
    2ffd:	74 65                	je     3064 <_end+0x1050>
    2fff:	5f                   	pop    %edi
    3000:	74 00                	je     3002 <_end+0xfee>
    3002:	02 80 07 5f 5f 6e    	add    0x6e5f5f07(%eax),%al
    3008:	65                   	gs
    3009:	65                   	gs
    300a:	64                   	fs
    300b:	5f                   	pop    %edi
    300c:	6d                   	insl   (%dx),%es:(%edi)
    300d:	62 73 74             	bound  %esi,0x74(%ebx)
    3010:	61                   	popa   
    3011:	74 65                	je     3078 <_end+0x1064>
    3013:	5f                   	pop    %edi
    3014:	74 00                	je     3016 <_end+0x1002>
    3016:	02 81 07 5f 5f 6e    	add    0x6e5f5f07(%ecx),%al
    301c:	65                   	gs
    301d:	65                   	gs
    301e:	64                   	fs
    301f:	5f                   	pop    %edi
    3020:	77 69                	ja     308b <_end+0x1077>
    3022:	6e                   	outsb  %ds:(%esi),(%dx)
    3023:	74 5f                	je     3084 <_end+0x1070>
    3025:	74 00                	je     3027 <_end+0x1013>
    3027:	04 01                	add    $0x1,%al
    3029:	15 5f 47 5f 73       	adc    $0x735f475f,%eax
    302e:	69 7a 65 5f 74 20 73 	imul   $0x7320745f,0x65(%edx),%edi
    3035:	69 7a 65 5f 74 00 01 	imul   $0x100745f,0x65(%edx),%edi
    303c:	20 5f 47             	and    %bl,0x47(%edi)
    303f:	5f                   	pop    %edi
    3040:	73 73                	jae    30b5 <_end+0x10a1>
    3042:	69 7a 65 5f 74 20 5f 	imul   $0x5f20745f,0x65(%edx),%edi
    3049:	5f                   	pop    %edi
    304a:	73 73                	jae    30bf <_end+0x10ab>
    304c:	69 7a 65 5f 74 00 01 	imul   $0x100745f,0x65(%edx),%edi
    3053:	21 5f 47             	and    %ebx,0x47(%edi)
    3056:	5f                   	pop    %edi
    3057:	6f                   	outsl  %ds:(%esi),(%dx)
    3058:	66 66 5f             	data32 pop %di
    305b:	74 20                	je     307d <_end+0x1069>
    305d:	5f                   	pop    %edi
    305e:	5f                   	pop    %edi
    305f:	6f                   	outsl  %ds:(%esi),(%dx)
    3060:	66 66 5f             	data32 pop %di
    3063:	74 00                	je     3065 <_end+0x1051>
    3065:	01 22                	add    %esp,(%edx)
    3067:	5f                   	pop    %edi
    3068:	47                   	inc    %edi
    3069:	5f                   	pop    %edi
    306a:	6f                   	outsl  %ds:(%esi),(%dx)
    306b:	66                   	data16
    306c:	66                   	data16
    306d:	36                   	ss
    306e:	34 5f                	xor    $0x5f,%al
    3070:	74 20                	je     3092 <_end+0x107e>
    3072:	5f                   	pop    %edi
    3073:	5f                   	pop    %edi
    3074:	6f                   	outsl  %ds:(%esi),(%dx)
    3075:	66                   	data16
    3076:	66                   	data16
    3077:	36                   	ss
    3078:	34 5f                	xor    $0x5f,%al
    307a:	74 00                	je     307c <_end+0x1068>
    307c:	01 23                	add    %esp,(%ebx)
    307e:	5f                   	pop    %edi
    307f:	47                   	inc    %edi
    3080:	5f                   	pop    %edi
    3081:	70 69                	jo     30ec <_end+0x10d8>
    3083:	64                   	fs
    3084:	5f                   	pop    %edi
    3085:	74 20                	je     30a7 <_end+0x1093>
    3087:	5f                   	pop    %edi
    3088:	5f                   	pop    %edi
    3089:	70 69                	jo     30f4 <_end+0x10e0>
    308b:	64                   	fs
    308c:	5f                   	pop    %edi
    308d:	74 00                	je     308f <_end+0x107b>
    308f:	01 24 5f             	add    %esp,(%edi,%ebx,2)
    3092:	47                   	inc    %edi
    3093:	5f                   	pop    %edi
    3094:	75 69                	jne    30ff <_end+0x10eb>
    3096:	64                   	fs
    3097:	5f                   	pop    %edi
    3098:	74 20                	je     30ba <_end+0x10a6>
    309a:	5f                   	pop    %edi
    309b:	5f                   	pop    %edi
    309c:	75 69                	jne    3107 <_end+0x10f3>
    309e:	64                   	fs
    309f:	5f                   	pop    %edi
    30a0:	74 00                	je     30a2 <_end+0x108e>
    30a2:	01 25 5f 47 5f 77    	add    %esp,0x775f475f
    30a8:	63 68 61             	arpl   %bp,0x61(%eax)
    30ab:	72 5f                	jb     310c <_end+0x10f8>
    30ad:	74 20                	je     30cf <_end+0x10bb>
    30af:	77 63                	ja     3114 <_end+0x1100>
    30b1:	68 61 72 5f 74       	push   $0x745f7261
    30b6:	00 01                	add    %al,(%ecx)
    30b8:	26                   	es
    30b9:	5f                   	pop    %edi
    30ba:	47                   	inc    %edi
    30bb:	5f                   	pop    %edi
    30bc:	77 69                	ja     3127 <_end+0x1113>
    30be:	6e                   	outsb  %ds:(%esi),(%dx)
    30bf:	74 5f                	je     3120 <_end+0x110c>
    30c1:	74 20                	je     30e3 <_end+0x10cf>
    30c3:	77 69                	ja     312e <_end+0x111a>
    30c5:	6e                   	outsb  %ds:(%esi),(%dx)
    30c6:	74 5f                	je     3127 <_end+0x1113>
    30c8:	74 00                	je     30ca <_end+0x10b6>
    30ca:	01 27                	add    %esp,(%edi)
    30cc:	5f                   	pop    %edi
    30cd:	47                   	inc    %edi
    30ce:	5f                   	pop    %edi
    30cf:	73 74                	jae    3145 <_end+0x1131>
    30d1:	61                   	popa   
    30d2:	74 36                	je     310a <_end+0x10f6>
    30d4:	34 20                	xor    $0x20,%al
    30d6:	73 74                	jae    314c <_end+0x1138>
    30d8:	61                   	popa   
    30d9:	74 36                	je     3111 <_end+0x10fd>
    30db:	34 00                	xor    $0x0,%al
    30dd:	01 3a                	add    %edi,(%edx)
    30df:	5f                   	pop    %edi
    30e0:	47                   	inc    %edi
    30e1:	5f                   	pop    %edi
    30e2:	48                   	dec    %eax
    30e3:	41                   	inc    %ecx
    30e4:	56                   	push   %esi
    30e5:	45                   	inc    %ebp
    30e6:	5f                   	pop    %edi
    30e7:	42                   	inc    %edx
    30e8:	4f                   	dec    %edi
    30e9:	4f                   	dec    %edi
    30ea:	4c                   	dec    %esp
    30eb:	20 31                	and    %dh,(%ecx)
    30ed:	00 01                	add    %al,(%ecx)
    30ef:	3e                   	ds
    30f0:	5f                   	pop    %edi
    30f1:	47                   	inc    %edi
    30f2:	5f                   	pop    %edi
    30f3:	48                   	dec    %eax
    30f4:	41                   	inc    %ecx
    30f5:	56                   	push   %esi
    30f6:	45                   	inc    %ebp
    30f7:	5f                   	pop    %edi
    30f8:	41                   	inc    %ecx
    30f9:	54                   	push   %esp
    30fa:	45                   	inc    %ebp
    30fb:	58                   	pop    %eax
    30fc:	49                   	dec    %ecx
    30fd:	54                   	push   %esp
    30fe:	20 31                	and    %dh,(%ecx)
    3100:	00 01                	add    %al,(%ecx)
    3102:	3f                   	aas    
    3103:	5f                   	pop    %edi
    3104:	47                   	inc    %edi
    3105:	5f                   	pop    %edi
    3106:	48                   	dec    %eax
    3107:	41                   	inc    %ecx
    3108:	56                   	push   %esi
    3109:	45                   	inc    %ebp
    310a:	5f                   	pop    %edi
    310b:	53                   	push   %ebx
    310c:	59                   	pop    %ecx
    310d:	53                   	push   %ebx
    310e:	5f                   	pop    %edi
    310f:	43                   	inc    %ebx
    3110:	44                   	inc    %esp
    3111:	45                   	inc    %ebp
    3112:	46                   	inc    %esi
    3113:	53                   	push   %ebx
    3114:	20 31                	and    %dh,(%ecx)
    3116:	00 01                	add    %al,(%ecx)
    3118:	40                   	inc    %eax
    3119:	5f                   	pop    %edi
    311a:	47                   	inc    %edi
    311b:	5f                   	pop    %edi
    311c:	48                   	dec    %eax
    311d:	41                   	inc    %ecx
    311e:	56                   	push   %esi
    311f:	45                   	inc    %ebp
    3120:	5f                   	pop    %edi
    3121:	53                   	push   %ebx
    3122:	59                   	pop    %ecx
    3123:	53                   	push   %ebx
    3124:	5f                   	pop    %edi
    3125:	57                   	push   %edi
    3126:	41                   	inc    %ecx
    3127:	49                   	dec    %ecx
    3128:	54                   	push   %esp
    3129:	20 31                	and    %dh,(%ecx)
    312b:	00 01                	add    %al,(%ecx)
    312d:	41                   	inc    %ecx
    312e:	5f                   	pop    %edi
    312f:	47                   	inc    %edi
    3130:	5f                   	pop    %edi
    3131:	4e                   	dec    %esi
    3132:	45                   	inc    %ebp
    3133:	45                   	inc    %ebp
    3134:	44                   	inc    %esp
    3135:	5f                   	pop    %edi
    3136:	53                   	push   %ebx
    3137:	54                   	push   %esp
    3138:	44                   	inc    %esp
    3139:	41                   	inc    %ecx
    313a:	52                   	push   %edx
    313b:	47                   	inc    %edi
    313c:	5f                   	pop    %edi
    313d:	48                   	dec    %eax
    313e:	20 31                	and    %dh,(%ecx)
    3140:	00 01                	add    %al,(%ecx)
    3142:	42                   	inc    %edx
    3143:	5f                   	pop    %edi
    3144:	47                   	inc    %edi
    3145:	5f                   	pop    %edi
    3146:	76 61                	jbe    31a9 <_end+0x1195>
    3148:	5f                   	pop    %edi
    3149:	6c                   	insb   (%dx),%es:(%edi)
    314a:	69 73 74 20 5f 5f 67 	imul   $0x675f5f20,0x74(%ebx),%esi
    3151:	6e                   	outsb  %ds:(%esi),(%dx)
    3152:	75 63                	jne    31b7 <_end+0x11a3>
    3154:	5f                   	pop    %edi
    3155:	76 61                	jbe    31b8 <_end+0x11a4>
    3157:	5f                   	pop    %edi
    3158:	6c                   	insb   (%dx),%es:(%edi)
    3159:	69 73 74 00 01 44 5f 	imul   $0x5f440100,0x74(%ebx),%esi
    3160:	47                   	inc    %edi
    3161:	5f                   	pop    %edi
    3162:	48                   	dec    %eax
    3163:	41                   	inc    %ecx
    3164:	56                   	push   %esi
    3165:	45                   	inc    %ebp
    3166:	5f                   	pop    %edi
    3167:	50                   	push   %eax
    3168:	52                   	push   %edx
    3169:	49                   	dec    %ecx
    316a:	4e                   	dec    %esi
    316b:	54                   	push   %esp
    316c:	46                   	inc    %esi
    316d:	5f                   	pop    %edi
    316e:	46                   	inc    %esi
    316f:	50                   	push   %eax
    3170:	20 31                	and    %dh,(%ecx)
    3172:	00 01                	add    %al,(%ecx)
    3174:	45                   	inc    %ebp
    3175:	5f                   	pop    %edi
    3176:	47                   	inc    %edi
    3177:	5f                   	pop    %edi
    3178:	48                   	dec    %eax
    3179:	41                   	inc    %ecx
    317a:	56                   	push   %esi
    317b:	45                   	inc    %ebp
    317c:	5f                   	pop    %edi
    317d:	4d                   	dec    %ebp
    317e:	4d                   	dec    %ebp
    317f:	41                   	inc    %ecx
    3180:	50                   	push   %eax
    3181:	20 31                	and    %dh,(%ecx)
    3183:	00 01                	add    %al,(%ecx)
    3185:	46                   	inc    %esi
    3186:	5f                   	pop    %edi
    3187:	47                   	inc    %edi
    3188:	5f                   	pop    %edi
    3189:	48                   	dec    %eax
    318a:	41                   	inc    %ecx
    318b:	56                   	push   %esi
    318c:	45                   	inc    %ebp
    318d:	5f                   	pop    %edi
    318e:	4d                   	dec    %ebp
    318f:	52                   	push   %edx
    3190:	45                   	inc    %ebp
    3191:	4d                   	dec    %ebp
    3192:	41                   	inc    %ecx
    3193:	50                   	push   %eax
    3194:	20 31                	and    %dh,(%ecx)
    3196:	00 01                	add    %al,(%ecx)
    3198:	47                   	inc    %edi
    3199:	5f                   	pop    %edi
    319a:	47                   	inc    %edi
    319b:	5f                   	pop    %edi
    319c:	48                   	dec    %eax
    319d:	41                   	inc    %ecx
    319e:	56                   	push   %esi
    319f:	45                   	inc    %ebp
    31a0:	5f                   	pop    %edi
    31a1:	4c                   	dec    %esp
    31a2:	4f                   	dec    %edi
    31a3:	4e                   	dec    %esi
    31a4:	47                   	inc    %edi
    31a5:	5f                   	pop    %edi
    31a6:	44                   	inc    %esp
    31a7:	4f                   	dec    %edi
    31a8:	55                   	push   %ebp
    31a9:	42                   	inc    %edx
    31aa:	4c                   	dec    %esp
    31ab:	45                   	inc    %ebp
    31ac:	5f                   	pop    %edi
    31ad:	49                   	dec    %ecx
    31ae:	4f                   	dec    %edi
    31af:	20 31                	and    %dh,(%ecx)
    31b1:	00 01                	add    %al,(%ecx)
    31b3:	48                   	dec    %eax
    31b4:	5f                   	pop    %edi
    31b5:	47                   	inc    %edi
    31b6:	5f                   	pop    %edi
    31b7:	48                   	dec    %eax
    31b8:	41                   	inc    %ecx
    31b9:	56                   	push   %esi
    31ba:	45                   	inc    %ebp
    31bb:	5f                   	pop    %edi
    31bc:	49                   	dec    %ecx
    31bd:	4f                   	dec    %edi
    31be:	5f                   	pop    %edi
    31bf:	46                   	inc    %esi
    31c0:	49                   	dec    %ecx
    31c1:	4c                   	dec    %esp
    31c2:	45                   	inc    %ebp
    31c3:	5f                   	pop    %edi
    31c4:	4f                   	dec    %edi
    31c5:	50                   	push   %eax
    31c6:	45                   	inc    %ebp
    31c7:	4e                   	dec    %esi
    31c8:	20 31                	and    %dh,(%ecx)
    31ca:	00 01                	add    %al,(%ecx)
    31cc:	49                   	dec    %ecx
    31cd:	5f                   	pop    %edi
    31ce:	47                   	inc    %edi
    31cf:	5f                   	pop    %edi
    31d0:	48                   	dec    %eax
    31d1:	41                   	inc    %ecx
    31d2:	56                   	push   %esi
    31d3:	45                   	inc    %ebp
    31d4:	5f                   	pop    %edi
    31d5:	49                   	dec    %ecx
    31d6:	4f                   	dec    %edi
    31d7:	5f                   	pop    %edi
    31d8:	47                   	inc    %edi
    31d9:	45                   	inc    %ebp
    31da:	54                   	push   %esp
    31db:	4c                   	dec    %esp
    31dc:	49                   	dec    %ecx
    31dd:	4e                   	dec    %esi
    31de:	45                   	inc    %ebp
    31df:	5f                   	pop    %edi
    31e0:	49                   	dec    %ecx
    31e1:	4e                   	dec    %esi
    31e2:	46                   	inc    %esi
    31e3:	4f                   	dec    %edi
    31e4:	20 31                	and    %dh,(%ecx)
    31e6:	00 01                	add    %al,(%ecx)
    31e8:	4b                   	dec    %ebx
    31e9:	5f                   	pop    %edi
    31ea:	47                   	inc    %edi
    31eb:	5f                   	pop    %edi
    31ec:	49                   	dec    %ecx
    31ed:	4f                   	dec    %edi
    31ee:	5f                   	pop    %edi
    31ef:	49                   	dec    %ecx
    31f0:	4f                   	dec    %edi
    31f1:	5f                   	pop    %edi
    31f2:	46                   	inc    %esi
    31f3:	49                   	dec    %ecx
    31f4:	4c                   	dec    %esp
    31f5:	45                   	inc    %ebp
    31f6:	5f                   	pop    %edi
    31f7:	56                   	push   %esi
    31f8:	45                   	inc    %ebp
    31f9:	52                   	push   %edx
    31fa:	53                   	push   %ebx
    31fb:	49                   	dec    %ecx
    31fc:	4f                   	dec    %edi
    31fd:	4e                   	dec    %esi
    31fe:	20 30                	and    %dh,(%eax)
    3200:	78 32                	js     3234 <_end+0x1220>
    3202:	30 30                	xor    %dh,(%eax)
    3204:	30 31                	xor    %dh,(%ecx)
    3206:	00 01                	add    %al,(%ecx)
    3208:	4d                   	dec    %ebp
    3209:	5f                   	pop    %edi
    320a:	47                   	inc    %edi
    320b:	5f                   	pop    %edi
    320c:	4f                   	dec    %edi
    320d:	50                   	push   %eax
    320e:	45                   	inc    %ebp
    320f:	4e                   	dec    %esi
    3210:	36                   	ss
    3211:	34 20                	xor    $0x20,%al
    3213:	5f                   	pop    %edi
    3214:	5f                   	pop    %edi
    3215:	6f                   	outsl  %ds:(%esi),(%dx)
    3216:	70 65                	jo     327d <_end+0x1269>
    3218:	6e                   	outsb  %ds:(%esi),(%dx)
    3219:	36                   	ss
    321a:	34 00                	xor    $0x0,%al
    321c:	01 4e 5f             	add    %ecx,0x5f(%esi)
    321f:	47                   	inc    %edi
    3220:	5f                   	pop    %edi
    3221:	4c                   	dec    %esp
    3222:	53                   	push   %ebx
    3223:	45                   	inc    %ebp
    3224:	45                   	inc    %ebp
    3225:	4b                   	dec    %ebx
    3226:	36                   	ss
    3227:	34 20                	xor    $0x20,%al
    3229:	5f                   	pop    %edi
    322a:	5f                   	pop    %edi
    322b:	6c                   	insb   (%dx),%es:(%edi)
    322c:	73 65                	jae    3293 <_end+0x127f>
    322e:	65 6b 36 34          	imul   $0x34,%gs:(%esi),%esi
    3232:	00 01                	add    %al,(%ecx)
    3234:	4f                   	dec    %edi
    3235:	5f                   	pop    %edi
    3236:	47                   	inc    %edi
    3237:	5f                   	pop    %edi
    3238:	4d                   	dec    %ebp
    3239:	4d                   	dec    %ebp
    323a:	41                   	inc    %ecx
    323b:	50                   	push   %eax
    323c:	36                   	ss
    323d:	34 20                	xor    $0x20,%al
    323f:	5f                   	pop    %edi
    3240:	5f                   	pop    %edi
    3241:	6d                   	insl   (%dx),%es:(%edi)
    3242:	6d                   	insl   (%dx),%es:(%edi)
    3243:	61                   	popa   
    3244:	70 36                	jo     327c <_end+0x1268>
    3246:	34 00                	xor    $0x0,%al
    3248:	01 50 5f             	add    %edx,0x5f(%eax)
    324b:	47                   	inc    %edi
    324c:	5f                   	pop    %edi
    324d:	46                   	inc    %esi
    324e:	53                   	push   %ebx
    324f:	54                   	push   %esp
    3250:	41                   	inc    %ecx
    3251:	54                   	push   %esp
    3252:	36                   	ss
    3253:	34 28                	xor    $0x28,%al
    3255:	66                   	data16
    3256:	64                   	fs
    3257:	2c 62                	sub    $0x62,%al
    3259:	75 66                	jne    32c1 <_end+0x12ad>
    325b:	29 20                	sub    %esp,(%eax)
    325d:	5f                   	pop    %edi
    325e:	5f                   	pop    %edi
    325f:	66                   	data16
    3260:	78 73                	js     32d5 <_end+0x12c1>
    3262:	74 61                	je     32c5 <_end+0x12b1>
    3264:	74 36                	je     329c <_end+0x1288>
    3266:	34 20                	xor    $0x20,%al
    3268:	28 5f 53             	sub    %bl,0x53(%edi)
    326b:	54                   	push   %esp
    326c:	41                   	inc    %ecx
    326d:	54                   	push   %esp
    326e:	5f                   	pop    %edi
    326f:	56                   	push   %esi
    3270:	45                   	inc    %ebp
    3271:	52                   	push   %edx
    3272:	2c 20                	sub    $0x20,%al
    3274:	66                   	data16
    3275:	64                   	fs
    3276:	2c 20                	sub    $0x20,%al
    3278:	62 75 66             	bound  %esi,0x66(%ebp)
    327b:	29 00                	sub    %eax,(%eax)
    327d:	01 53 5f             	add    %edx,0x5f(%ebx)
    3280:	47                   	inc    %edi
    3281:	5f                   	pop    %edi
    3282:	48                   	dec    %eax
    3283:	41                   	inc    %ecx
    3284:	56                   	push   %esi
    3285:	45                   	inc    %ebp
    3286:	5f                   	pop    %edi
    3287:	53                   	push   %ebx
    3288:	54                   	push   %esp
    3289:	5f                   	pop    %edi
    328a:	42                   	inc    %edx
    328b:	4c                   	dec    %esp
    328c:	4b                   	dec    %ebx
    328d:	53                   	push   %ebx
    328e:	49                   	dec    %ecx
    328f:	5a                   	pop    %edx
    3290:	45                   	inc    %ebp
    3291:	20 64 65 66          	and    %ah,0x66(%ebp,%eiz,2)
    3295:	69 6e 65 64 20 28 5f 	imul   $0x5f282064,0x65(%esi),%ebp
    329c:	53                   	push   %ebx
    329d:	54                   	push   %esp
    329e:	41                   	inc    %ecx
    329f:	54                   	push   %esp
    32a0:	42                   	inc    %edx
    32a1:	55                   	push   %ebp
    32a2:	46                   	inc    %esi
    32a3:	5f                   	pop    %edi
    32a4:	53                   	push   %ebx
    32a5:	54                   	push   %esp
    32a6:	5f                   	pop    %edi
    32a7:	42                   	inc    %edx
    32a8:	4c                   	dec    %esp
    32a9:	4b                   	dec    %ebx
    32aa:	53                   	push   %ebx
    32ab:	49                   	dec    %ecx
    32ac:	5a                   	pop    %edx
    32ad:	45                   	inc    %ebp
    32ae:	29 00                	sub    %eax,(%eax)
    32b0:	01 55 5f             	add    %edx,0x5f(%ebp)
    32b3:	47                   	inc    %edi
    32b4:	5f                   	pop    %edi
    32b5:	42                   	inc    %edx
    32b6:	55                   	push   %ebp
    32b7:	46                   	inc    %esi
    32b8:	53                   	push   %ebx
    32b9:	49                   	dec    %ecx
    32ba:	5a                   	pop    %edx
    32bb:	20 38                	and    %bh,(%eax)
    32bd:	31 39                	xor    %edi,(%ecx)
    32bf:	32 00                	xor    (%eax),%al
    32c1:	01 58 5f             	add    %ebx,0x5f(%eax)
    32c4:	47                   	inc    %edi
    32c5:	5f                   	pop    %edi
    32c6:	4e                   	dec    %esi
    32c7:	41                   	inc    %ecx
    32c8:	4d                   	dec    %ebp
    32c9:	45                   	inc    %ebp
    32ca:	53                   	push   %ebx
    32cb:	5f                   	pop    %edi
    32cc:	48                   	dec    %eax
    32cd:	41                   	inc    %ecx
    32ce:	56                   	push   %esi
    32cf:	45                   	inc    %ebp
    32d0:	5f                   	pop    %edi
    32d1:	55                   	push   %ebp
    32d2:	4e                   	dec    %esi
    32d3:	44                   	inc    %esp
    32d4:	45                   	inc    %ebp
    32d5:	52                   	push   %edx
    32d6:	53                   	push   %ebx
    32d7:	43                   	inc    %ebx
    32d8:	4f                   	dec    %edi
    32d9:	52                   	push   %edx
    32da:	45                   	inc    %ebp
    32db:	20 30                	and    %dh,(%eax)
    32dd:	00 01                	add    %al,(%ecx)
    32df:	59                   	pop    %ecx
    32e0:	5f                   	pop    %edi
    32e1:	47                   	inc    %edi
    32e2:	5f                   	pop    %edi
    32e3:	56                   	push   %esi
    32e4:	54                   	push   %esp
    32e5:	41                   	inc    %ecx
    32e6:	42                   	inc    %edx
    32e7:	4c                   	dec    %esp
    32e8:	45                   	inc    %ebp
    32e9:	5f                   	pop    %edi
    32ea:	4c                   	dec    %esp
    32eb:	41                   	inc    %ecx
    32ec:	42                   	inc    %edx
    32ed:	45                   	inc    %ebp
    32ee:	4c                   	dec    %esp
    32ef:	5f                   	pop    %edi
    32f0:	48                   	dec    %eax
    32f1:	41                   	inc    %ecx
    32f2:	53                   	push   %ebx
    32f3:	5f                   	pop    %edi
    32f4:	4c                   	dec    %esp
    32f5:	45                   	inc    %ebp
    32f6:	4e                   	dec    %esi
    32f7:	47                   	inc    %edi
    32f8:	54                   	push   %esp
    32f9:	48                   	dec    %eax
    32fa:	20 31                	and    %dh,(%ecx)
    32fc:	00 01                	add    %al,(%ecx)
    32fe:	5a                   	pop    %edx
    32ff:	5f                   	pop    %edi
    3300:	47                   	inc    %edi
    3301:	5f                   	pop    %edi
    3302:	55                   	push   %ebp
    3303:	53                   	push   %ebx
    3304:	49                   	dec    %ecx
    3305:	4e                   	dec    %esi
    3306:	47                   	inc    %edi
    3307:	5f                   	pop    %edi
    3308:	54                   	push   %esp
    3309:	48                   	dec    %eax
    330a:	55                   	push   %ebp
    330b:	4e                   	dec    %esi
    330c:	4b                   	dec    %ebx
    330d:	53                   	push   %ebx
    330e:	20 31                	and    %dh,(%ecx)
    3310:	00 01                	add    %al,(%ecx)
    3312:	5b                   	pop    %ebx
    3313:	5f                   	pop    %edi
    3314:	47                   	inc    %edi
    3315:	5f                   	pop    %edi
    3316:	56                   	push   %esi
    3317:	54                   	push   %esp
    3318:	41                   	inc    %ecx
    3319:	42                   	inc    %edx
    331a:	4c                   	dec    %esp
    331b:	45                   	inc    %ebp
    331c:	5f                   	pop    %edi
    331d:	4c                   	dec    %esp
    331e:	41                   	inc    %ecx
    331f:	42                   	inc    %edx
    3320:	45                   	inc    %ebp
    3321:	4c                   	dec    %esp
    3322:	5f                   	pop    %edi
    3323:	50                   	push   %eax
    3324:	52                   	push   %edx
    3325:	45                   	inc    %ebp
    3326:	46                   	inc    %esi
    3327:	49                   	dec    %ecx
    3328:	58                   	pop    %eax
    3329:	20 22                	and    %ah,(%edx)
    332b:	5f                   	pop    %edi
    332c:	5f                   	pop    %edi
    332d:	76 74                	jbe    33a3 <_end+0x138f>
    332f:	5f                   	pop    %edi
    3330:	22 00                	and    (%eax),%al
    3332:	01 5c 5f 47          	add    %ebx,0x47(%edi,%ebx,2)
    3336:	5f                   	pop    %edi
    3337:	56                   	push   %esi
    3338:	54                   	push   %esp
    3339:	41                   	inc    %ecx
    333a:	42                   	inc    %edx
    333b:	4c                   	dec    %esp
    333c:	45                   	inc    %ebp
    333d:	5f                   	pop    %edi
    333e:	4c                   	dec    %esp
    333f:	41                   	inc    %ecx
    3340:	42                   	inc    %edx
    3341:	45                   	inc    %ebp
    3342:	4c                   	dec    %esp
    3343:	5f                   	pop    %edi
    3344:	50                   	push   %eax
    3345:	52                   	push   %edx
    3346:	45                   	inc    %ebp
    3347:	46                   	inc    %esi
    3348:	49                   	dec    %ecx
    3349:	58                   	pop    %eax
    334a:	5f                   	pop    %edi
    334b:	49                   	dec    %ecx
    334c:	44                   	inc    %esp
    334d:	20 5f 5f             	and    %bl,0x5f(%edi)
    3350:	76 74                	jbe    33c6 <_end+0x13b2>
    3352:	5f                   	pop    %edi
    3353:	00 01                	add    %al,(%ecx)
    3355:	60                   	pusha  
    3356:	5f                   	pop    %edi
    3357:	47                   	inc    %edi
    3358:	5f                   	pop    %edi
    3359:	41                   	inc    %ecx
    335a:	52                   	push   %edx
    335b:	47                   	inc    %edi
    335c:	53                   	push   %ebx
    335d:	28 41 52             	sub    %al,0x52(%ecx)
    3360:	47                   	inc    %edi
    3361:	4c                   	dec    %esp
    3362:	49                   	dec    %ecx
    3363:	53                   	push   %ebx
    3364:	54                   	push   %esp
    3365:	29 20                	sub    %esp,(%eax)
    3367:	41                   	inc    %ecx
    3368:	52                   	push   %edx
    3369:	47                   	inc    %edi
    336a:	4c                   	dec    %esp
    336b:	49                   	dec    %ecx
    336c:	53                   	push   %ebx
    336d:	54                   	push   %esp
    336e:	00 04 01             	add    %al,(%ecx,%eax,1)
    3371:	22 5f 49             	and    0x49(%edi),%bl
    3374:	4f                   	dec    %edi
    3375:	5f                   	pop    %edi
    3376:	70 6f                	jo     33e7 <_end+0x13d3>
    3378:	73 5f                	jae    33d9 <_end+0x13c5>
    337a:	74 20                	je     339c <_end+0x1388>
    337c:	5f                   	pop    %edi
    337d:	47                   	inc    %edi
    337e:	5f                   	pop    %edi
    337f:	66                   	data16
    3380:	70 6f                	jo     33f1 <_end+0x13dd>
    3382:	73 5f                	jae    33e3 <_end+0x13cf>
    3384:	74 00                	je     3386 <_end+0x1372>
    3386:	01 23                	add    %esp,(%ebx)
    3388:	5f                   	pop    %edi
    3389:	49                   	dec    %ecx
    338a:	4f                   	dec    %edi
    338b:	5f                   	pop    %edi
    338c:	66                   	data16
    338d:	70 6f                	jo     33fe <_end+0x13ea>
    338f:	73 5f                	jae    33f0 <_end+0x13dc>
    3391:	74 20                	je     33b3 <_end+0x139f>
    3393:	5f                   	pop    %edi
    3394:	47                   	inc    %edi
    3395:	5f                   	pop    %edi
    3396:	66                   	data16
    3397:	70 6f                	jo     3408 <_end+0x13f4>
    3399:	73 5f                	jae    33fa <_end+0x13e6>
    339b:	74 00                	je     339d <_end+0x1389>
    339d:	01 24 5f             	add    %esp,(%edi,%ebx,2)
    33a0:	49                   	dec    %ecx
    33a1:	4f                   	dec    %edi
    33a2:	5f                   	pop    %edi
    33a3:	66                   	data16
    33a4:	70 6f                	jo     3415 <_end+0x1401>
    33a6:	73 36                	jae    33de <_end+0x13ca>
    33a8:	34 5f                	xor    $0x5f,%al
    33aa:	74 20                	je     33cc <_end+0x13b8>
    33ac:	5f                   	pop    %edi
    33ad:	47                   	inc    %edi
    33ae:	5f                   	pop    %edi
    33af:	66                   	data16
    33b0:	70 6f                	jo     3421 <_end+0x140d>
    33b2:	73 36                	jae    33ea <_end+0x13d6>
    33b4:	34 5f                	xor    $0x5f,%al
    33b6:	74 00                	je     33b8 <_end+0x13a4>
    33b8:	01 25 5f 49 4f 5f    	add    %esp,0x5f4f495f
    33be:	73 69                	jae    3429 <_end+0x1415>
    33c0:	7a 65                	jp     3427 <_end+0x1413>
    33c2:	5f                   	pop    %edi
    33c3:	74 20                	je     33e5 <_end+0x13d1>
    33c5:	5f                   	pop    %edi
    33c6:	47                   	inc    %edi
    33c7:	5f                   	pop    %edi
    33c8:	73 69                	jae    3433 <_end+0x141f>
    33ca:	7a 65                	jp     3431 <_end+0x141d>
    33cc:	5f                   	pop    %edi
    33cd:	74 00                	je     33cf <_end+0x13bb>
    33cf:	01 26                	add    %esp,(%esi)
    33d1:	5f                   	pop    %edi
    33d2:	49                   	dec    %ecx
    33d3:	4f                   	dec    %edi
    33d4:	5f                   	pop    %edi
    33d5:	73 73                	jae    344a <_end+0x1436>
    33d7:	69 7a 65 5f 74 20 5f 	imul   $0x5f20745f,0x65(%edx),%edi
    33de:	47                   	inc    %edi
    33df:	5f                   	pop    %edi
    33e0:	73 73                	jae    3455 <_end+0x1441>
    33e2:	69 7a 65 5f 74 00 01 	imul   $0x100745f,0x65(%edx),%edi
    33e9:	27                   	daa    
    33ea:	5f                   	pop    %edi
    33eb:	49                   	dec    %ecx
    33ec:	4f                   	dec    %edi
    33ed:	5f                   	pop    %edi
    33ee:	6f                   	outsl  %ds:(%esi),(%dx)
    33ef:	66 66 5f             	data32 pop %di
    33f2:	74 20                	je     3414 <_end+0x1400>
    33f4:	5f                   	pop    %edi
    33f5:	47                   	inc    %edi
    33f6:	5f                   	pop    %edi
    33f7:	6f                   	outsl  %ds:(%esi),(%dx)
    33f8:	66 66 5f             	data32 pop %di
    33fb:	74 00                	je     33fd <_end+0x13e9>
    33fd:	01 28                	add    %ebp,(%eax)
    33ff:	5f                   	pop    %edi
    3400:	49                   	dec    %ecx
    3401:	4f                   	dec    %edi
    3402:	5f                   	pop    %edi
    3403:	6f                   	outsl  %ds:(%esi),(%dx)
    3404:	66                   	data16
    3405:	66                   	data16
    3406:	36                   	ss
    3407:	34 5f                	xor    $0x5f,%al
    3409:	74 20                	je     342b <_end+0x1417>
    340b:	5f                   	pop    %edi
    340c:	47                   	inc    %edi
    340d:	5f                   	pop    %edi
    340e:	6f                   	outsl  %ds:(%esi),(%dx)
    340f:	66                   	data16
    3410:	66                   	data16
    3411:	36                   	ss
    3412:	34 5f                	xor    $0x5f,%al
    3414:	74 00                	je     3416 <_end+0x1402>
    3416:	01 29                	add    %ebp,(%ecx)
    3418:	5f                   	pop    %edi
    3419:	49                   	dec    %ecx
    341a:	4f                   	dec    %edi
    341b:	5f                   	pop    %edi
    341c:	70 69                	jo     3487 <_end+0x1473>
    341e:	64                   	fs
    341f:	5f                   	pop    %edi
    3420:	74 20                	je     3442 <_end+0x142e>
    3422:	5f                   	pop    %edi
    3423:	47                   	inc    %edi
    3424:	5f                   	pop    %edi
    3425:	70 69                	jo     3490 <_end+0x147c>
    3427:	64                   	fs
    3428:	5f                   	pop    %edi
    3429:	74 00                	je     342b <_end+0x1417>
    342b:	01 2a                	add    %ebp,(%edx)
    342d:	5f                   	pop    %edi
    342e:	49                   	dec    %ecx
    342f:	4f                   	dec    %edi
    3430:	5f                   	pop    %edi
    3431:	75 69                	jne    349c <_end+0x1488>
    3433:	64                   	fs
    3434:	5f                   	pop    %edi
    3435:	74 20                	je     3457 <_end+0x1443>
    3437:	5f                   	pop    %edi
    3438:	47                   	inc    %edi
    3439:	5f                   	pop    %edi
    343a:	75 69                	jne    34a5 <_end+0x1491>
    343c:	64                   	fs
    343d:	5f                   	pop    %edi
    343e:	74 00                	je     3440 <_end+0x142c>
    3440:	01 2b                	add    %ebp,(%ebx)
    3442:	5f                   	pop    %edi
    3443:	49                   	dec    %ecx
    3444:	4f                   	dec    %edi
    3445:	5f                   	pop    %edi
    3446:	69 63 6f 6e 76 5f 74 	imul   $0x745f766e,0x6f(%ebx),%esp
    344d:	20 5f 47             	and    %bl,0x47(%edi)
    3450:	5f                   	pop    %edi
    3451:	69 63 6f 6e 76 5f 74 	imul   $0x745f766e,0x6f(%ebx),%esp
    3458:	00 01                	add    %al,(%ecx)
    345a:	2c 5f                	sub    $0x5f,%al
    345c:	49                   	dec    %ecx
    345d:	4f                   	dec    %edi
    345e:	5f                   	pop    %edi
    345f:	48                   	dec    %eax
    3460:	41                   	inc    %ecx
    3461:	56                   	push   %esi
    3462:	45                   	inc    %ebp
    3463:	5f                   	pop    %edi
    3464:	53                   	push   %ebx
    3465:	59                   	pop    %ecx
    3466:	53                   	push   %ebx
    3467:	5f                   	pop    %edi
    3468:	57                   	push   %edi
    3469:	41                   	inc    %ecx
    346a:	49                   	dec    %ecx
    346b:	54                   	push   %esp
    346c:	20 5f 47             	and    %bl,0x47(%edi)
    346f:	5f                   	pop    %edi
    3470:	48                   	dec    %eax
    3471:	41                   	inc    %ecx
    3472:	56                   	push   %esi
    3473:	45                   	inc    %ebp
    3474:	5f                   	pop    %edi
    3475:	53                   	push   %ebx
    3476:	59                   	pop    %ecx
    3477:	53                   	push   %ebx
    3478:	5f                   	pop    %edi
    3479:	57                   	push   %edi
    347a:	41                   	inc    %ecx
    347b:	49                   	dec    %ecx
    347c:	54                   	push   %esp
    347d:	00 01                	add    %al,(%ecx)
    347f:	2d 5f 49 4f 5f       	sub    $0x5f4f495f,%eax
    3484:	48                   	dec    %eax
    3485:	41                   	inc    %ecx
    3486:	56                   	push   %esi
    3487:	45                   	inc    %ebp
    3488:	5f                   	pop    %edi
    3489:	53                   	push   %ebx
    348a:	54                   	push   %esp
    348b:	5f                   	pop    %edi
    348c:	42                   	inc    %edx
    348d:	4c                   	dec    %esp
    348e:	4b                   	dec    %ebx
    348f:	53                   	push   %ebx
    3490:	49                   	dec    %ecx
    3491:	5a                   	pop    %edx
    3492:	45                   	inc    %ebp
    3493:	20 5f 47             	and    %bl,0x47(%edi)
    3496:	5f                   	pop    %edi
    3497:	48                   	dec    %eax
    3498:	41                   	inc    %ecx
    3499:	56                   	push   %esi
    349a:	45                   	inc    %ebp
    349b:	5f                   	pop    %edi
    349c:	53                   	push   %ebx
    349d:	54                   	push   %esp
    349e:	5f                   	pop    %edi
    349f:	42                   	inc    %edx
    34a0:	4c                   	dec    %esp
    34a1:	4b                   	dec    %ebx
    34a2:	53                   	push   %ebx
    34a3:	49                   	dec    %ecx
    34a4:	5a                   	pop    %edx
    34a5:	45                   	inc    %ebp
    34a6:	00 01                	add    %al,(%ecx)
    34a8:	2e                   	cs
    34a9:	5f                   	pop    %edi
    34aa:	49                   	dec    %ecx
    34ab:	4f                   	dec    %edi
    34ac:	5f                   	pop    %edi
    34ad:	42                   	inc    %edx
    34ae:	55                   	push   %ebp
    34af:	46                   	inc    %esi
    34b0:	53                   	push   %ebx
    34b1:	49                   	dec    %ecx
    34b2:	5a                   	pop    %edx
    34b3:	20 5f 47             	and    %bl,0x47(%edi)
    34b6:	5f                   	pop    %edi
    34b7:	42                   	inc    %edx
    34b8:	55                   	push   %ebp
    34b9:	46                   	inc    %esi
    34ba:	53                   	push   %ebx
    34bb:	49                   	dec    %ecx
    34bc:	5a                   	pop    %edx
    34bd:	00 01                	add    %al,(%ecx)
    34bf:	2f                   	das    
    34c0:	5f                   	pop    %edi
    34c1:	49                   	dec    %ecx
    34c2:	4f                   	dec    %edi
    34c3:	5f                   	pop    %edi
    34c4:	76 61                	jbe    3527 <_end+0x1513>
    34c6:	5f                   	pop    %edi
    34c7:	6c                   	insb   (%dx),%es:(%edi)
    34c8:	69 73 74 20 5f 47 5f 	imul   $0x5f475f20,0x74(%ebx),%esi
    34cf:	76 61                	jbe    3532 <_end+0x151e>
    34d1:	5f                   	pop    %edi
    34d2:	6c                   	insb   (%dx),%es:(%edi)
    34d3:	69 73 74 00 01 30 5f 	imul   $0x5f300100,0x74(%ebx),%esi
    34da:	49                   	dec    %ecx
    34db:	4f                   	dec    %edi
    34dc:	5f                   	pop    %edi
    34dd:	77 69                	ja     3548 <_end+0x1534>
    34df:	6e                   	outsb  %ds:(%esi),(%dx)
    34e0:	74 5f                	je     3541 <_end+0x152d>
    34e2:	74 20                	je     3504 <_end+0x14f0>
    34e4:	5f                   	pop    %edi
    34e5:	47                   	inc    %edi
    34e6:	5f                   	pop    %edi
    34e7:	77 69                	ja     3552 <_end+0x153e>
    34e9:	6e                   	outsb  %ds:(%esi),(%dx)
    34ea:	74 5f                	je     354b <_end+0x1537>
    34ec:	74 00                	je     34ee <_end+0x14da>
    34ee:	01 34 5f             	add    %esi,(%edi,%ebx,2)
    34f1:	5f                   	pop    %edi
    34f2:	6e                   	outsb  %ds:(%esi),(%dx)
    34f3:	65                   	gs
    34f4:	65                   	gs
    34f5:	64                   	fs
    34f6:	5f                   	pop    %edi
    34f7:	5f                   	pop    %edi
    34f8:	5f                   	pop    %edi
    34f9:	76 61                	jbe    355c <_end+0x1548>
    34fb:	5f                   	pop    %edi
    34fc:	6c                   	insb   (%dx),%es:(%edi)
    34fd:	69 73 74 20 00 03 35 	imul   $0x35030020,0x74(%ebx),%esi
    3504:	0f 02 22             	lar    (%edx),%esp
    3507:	5f                   	pop    %edi
    3508:	5f                   	pop    %edi
    3509:	6e                   	outsb  %ds:(%esi),(%dx)
    350a:	65                   	gs
    350b:	65                   	gs
    350c:	64                   	fs
    350d:	5f                   	pop    %edi
    350e:	5f                   	pop    %edi
    350f:	5f                   	pop    %edi
    3510:	76 61                	jbe    3573 <_end+0x155f>
    3512:	5f                   	pop    %edi
    3513:	6c                   	insb   (%dx),%es:(%edi)
    3514:	69 73 74 00 01 27 5f 	imul   $0x5f270100,0x74(%ebx),%esi
    351b:	5f                   	pop    %edi
    351c:	47                   	inc    %edi
    351d:	4e                   	dec    %esi
    351e:	55                   	push   %ebp
    351f:	43                   	inc    %ebx
    3520:	5f                   	pop    %edi
    3521:	56                   	push   %esi
    3522:	41                   	inc    %ecx
    3523:	5f                   	pop    %edi
    3524:	4c                   	dec    %esp
    3525:	49                   	dec    %ecx
    3526:	53                   	push   %ebx
    3527:	54                   	push   %esp
    3528:	20 00                	and    %al,(%eax)
    352a:	04 02                	add    $0x2,%al
    352c:	37                   	aaa    
    352d:	5f                   	pop    %edi
    352e:	49                   	dec    %ecx
    352f:	4f                   	dec    %edi
    3530:	5f                   	pop    %edi
    3531:	76 61                	jbe    3594 <_end+0x1580>
    3533:	5f                   	pop    %edi
    3534:	6c                   	insb   (%dx),%es:(%edi)
    3535:	69 73 74 00 01 38 5f 	imul   $0x5f380100,0x74(%ebx),%esi
    353c:	49                   	dec    %ecx
    353d:	4f                   	dec    %edi
    353e:	5f                   	pop    %edi
    353f:	76 61                	jbe    35a2 <_end+0x158e>
    3541:	5f                   	pop    %edi
    3542:	6c                   	insb   (%dx),%es:(%edi)
    3543:	69 73 74 20 5f 5f 67 	imul   $0x675f5f20,0x74(%ebx),%esi
    354a:	6e                   	outsb  %ds:(%esi),(%dx)
    354b:	75 63                	jne    35b0 <_end+0x159c>
    354d:	5f                   	pop    %edi
    354e:	76 61                	jbe    35b1 <_end+0x159d>
    3550:	5f                   	pop    %edi
    3551:	6c                   	insb   (%dx),%es:(%edi)
    3552:	69 73 74 00 01 4c 5f 	imul   $0x5f4c0100,0x74(%ebx),%esi
    3559:	50                   	push   %eax
    355a:	41                   	inc    %ecx
    355b:	52                   	push   %edx
    355c:	41                   	inc    %ecx
    355d:	4d                   	dec    %ebp
    355e:	53                   	push   %ebx
    355f:	28 70 72             	sub    %dh,0x72(%eax)
    3562:	6f                   	outsl  %ds:(%esi),(%dx)
    3563:	74 6f                	je     35d4 <_end+0x15c0>
    3565:	73 29                	jae    3590 <_end+0x157c>
    3567:	20 5f 5f             	and    %bl,0x5f(%edi)
    356a:	50                   	push   %eax
    356b:	28 70 72             	sub    %dh,0x72(%eax)
    356e:	6f                   	outsl  %ds:(%esi),(%dx)
    356f:	74 6f                	je     35e0 <_end+0x15cc>
    3571:	73 29                	jae    359c <_end+0x1588>
    3573:	00 01                	add    %al,(%ecx)
    3575:	54                   	push   %esp
    3576:	5f                   	pop    %edi
    3577:	49                   	dec    %ecx
    3578:	4f                   	dec    %edi
    3579:	5f                   	pop    %edi
    357a:	55                   	push   %ebp
    357b:	4e                   	dec    %esi
    357c:	49                   	dec    %ecx
    357d:	46                   	inc    %esi
    357e:	49                   	dec    %ecx
    357f:	45                   	inc    %ebp
    3580:	44                   	inc    %esp
    3581:	5f                   	pop    %edi
    3582:	4a                   	dec    %edx
    3583:	55                   	push   %ebp
    3584:	4d                   	dec    %ebp
    3585:	50                   	push   %eax
    3586:	54                   	push   %esp
    3587:	41                   	inc    %ecx
    3588:	42                   	inc    %edx
    3589:	4c                   	dec    %esp
    358a:	45                   	inc    %ebp
    358b:	53                   	push   %ebx
    358c:	20 31                	and    %dh,(%ecx)
    358e:	00 01                	add    %al,(%ecx)
    3590:	5a                   	pop    %edx
    3591:	45                   	inc    %ebp
    3592:	4f                   	dec    %edi
    3593:	46                   	inc    %esi
    3594:	20 28                	and    %ch,(%eax)
    3596:	2d 31 29 00 01       	sub    $0x1002931,%eax
    359b:	69 5f 49 4f 53 5f 49 	imul   $0x495f534f,0x49(%edi),%ebx
    35a2:	4e                   	dec    %esi
    35a3:	50                   	push   %eax
    35a4:	55                   	push   %ebp
    35a5:	54                   	push   %esp
    35a6:	20 31                	and    %dh,(%ecx)
    35a8:	00 01                	add    %al,(%ecx)
    35aa:	6a 5f                	push   $0x5f
    35ac:	49                   	dec    %ecx
    35ad:	4f                   	dec    %edi
    35ae:	53                   	push   %ebx
    35af:	5f                   	pop    %edi
    35b0:	4f                   	dec    %edi
    35b1:	55                   	push   %ebp
    35b2:	54                   	push   %esp
    35b3:	50                   	push   %eax
    35b4:	55                   	push   %ebp
    35b5:	54                   	push   %esp
    35b6:	20 32                	and    %dh,(%edx)
    35b8:	00 01                	add    %al,(%ecx)
    35ba:	6b 5f 49 4f          	imul   $0x4f,0x49(%edi),%ebx
    35be:	53                   	push   %ebx
    35bf:	5f                   	pop    %edi
    35c0:	41                   	inc    %ecx
    35c1:	54                   	push   %esp
    35c2:	45                   	inc    %ebp
    35c3:	4e                   	dec    %esi
    35c4:	44                   	inc    %esp
    35c5:	20 34 00             	and    %dh,(%eax,%eax,1)
    35c8:	01 6c 5f 49          	add    %ebp,0x49(%edi,%ebx,2)
    35cc:	4f                   	dec    %edi
    35cd:	53                   	push   %ebx
    35ce:	5f                   	pop    %edi
    35cf:	41                   	inc    %ecx
    35d0:	50                   	push   %eax
    35d1:	50                   	push   %eax
    35d2:	45                   	inc    %ebp
    35d3:	4e                   	dec    %esi
    35d4:	44                   	inc    %esp
    35d5:	20 38                	and    %bh,(%eax)
    35d7:	00 01                	add    %al,(%ecx)
    35d9:	6d                   	insl   (%dx),%es:(%edi)
    35da:	5f                   	pop    %edi
    35db:	49                   	dec    %ecx
    35dc:	4f                   	dec    %edi
    35dd:	53                   	push   %ebx
    35de:	5f                   	pop    %edi
    35df:	54                   	push   %esp
    35e0:	52                   	push   %edx
    35e1:	55                   	push   %ebp
    35e2:	4e                   	dec    %esi
    35e3:	43                   	inc    %ebx
    35e4:	20 31                	and    %dh,(%ecx)
    35e6:	36 00 01             	add    %al,%ss:(%ecx)
    35e9:	6e                   	outsb  %ds:(%esi),(%dx)
    35ea:	5f                   	pop    %edi
    35eb:	49                   	dec    %ecx
    35ec:	4f                   	dec    %edi
    35ed:	53                   	push   %ebx
    35ee:	5f                   	pop    %edi
    35ef:	4e                   	dec    %esi
    35f0:	4f                   	dec    %edi
    35f1:	43                   	inc    %ebx
    35f2:	52                   	push   %edx
    35f3:	45                   	inc    %ebp
    35f4:	41                   	inc    %ecx
    35f5:	54                   	push   %esp
    35f6:	45                   	inc    %ebp
    35f7:	20 33                	and    %dh,(%ebx)
    35f9:	32 00                	xor    (%eax),%al
    35fb:	01 6f 5f             	add    %ebp,0x5f(%edi)
    35fe:	49                   	dec    %ecx
    35ff:	4f                   	dec    %edi
    3600:	53                   	push   %ebx
    3601:	5f                   	pop    %edi
    3602:	4e                   	dec    %esi
    3603:	4f                   	dec    %edi
    3604:	52                   	push   %edx
    3605:	45                   	inc    %ebp
    3606:	50                   	push   %eax
    3607:	4c                   	dec    %esp
    3608:	41                   	inc    %ecx
    3609:	43                   	inc    %ebx
    360a:	45                   	inc    %ebp
    360b:	20 36                	and    %dh,(%esi)
    360d:	34 00                	xor    $0x0,%al
    360f:	01 70 5f             	add    %esi,0x5f(%eax)
    3612:	49                   	dec    %ecx
    3613:	4f                   	dec    %edi
    3614:	53                   	push   %ebx
    3615:	5f                   	pop    %edi
    3616:	42                   	inc    %edx
    3617:	49                   	dec    %ecx
    3618:	4e                   	dec    %esi
    3619:	20 31                	and    %dh,(%ecx)
    361b:	32 38                	xor    (%eax),%bh
    361d:	00 01                	add    %al,(%ecx)
    361f:	78 5f                	js     3680 <_end+0x166c>
    3621:	49                   	dec    %ecx
    3622:	4f                   	dec    %edi
    3623:	5f                   	pop    %edi
    3624:	4d                   	dec    %ebp
    3625:	41                   	inc    %ecx
    3626:	47                   	inc    %edi
    3627:	49                   	dec    %ecx
    3628:	43                   	inc    %ebx
    3629:	20 30                	and    %dh,(%eax)
    362b:	78 46                	js     3673 <_end+0x165f>
    362d:	42                   	inc    %edx
    362e:	41                   	inc    %ecx
    362f:	44                   	inc    %esp
    3630:	30 30                	xor    %dh,(%eax)
    3632:	30 30                	xor    %dh,(%eax)
    3634:	00 01                	add    %al,(%ecx)
    3636:	79 5f                	jns    3697 <_end+0x1683>
    3638:	4f                   	dec    %edi
    3639:	4c                   	dec    %esp
    363a:	44                   	inc    %esp
    363b:	5f                   	pop    %edi
    363c:	53                   	push   %ebx
    363d:	54                   	push   %esp
    363e:	44                   	inc    %esp
    363f:	49                   	dec    %ecx
    3640:	4f                   	dec    %edi
    3641:	5f                   	pop    %edi
    3642:	4d                   	dec    %ebp
    3643:	41                   	inc    %ecx
    3644:	47                   	inc    %edi
    3645:	49                   	dec    %ecx
    3646:	43                   	inc    %ebx
    3647:	20 30                	and    %dh,(%eax)
    3649:	78 46                	js     3691 <_end+0x167d>
    364b:	41                   	inc    %ecx
    364c:	42                   	inc    %edx
    364d:	43                   	inc    %ebx
    364e:	30 30                	xor    %dh,(%eax)
    3650:	30 30                	xor    %dh,(%eax)
    3652:	00 01                	add    %al,(%ecx)
    3654:	7a 5f                	jp     36b5 <_end+0x16a1>
    3656:	49                   	dec    %ecx
    3657:	4f                   	dec    %edi
    3658:	5f                   	pop    %edi
    3659:	4d                   	dec    %ebp
    365a:	41                   	inc    %ecx
    365b:	47                   	inc    %edi
    365c:	49                   	dec    %ecx
    365d:	43                   	inc    %ebx
    365e:	5f                   	pop    %edi
    365f:	4d                   	dec    %ebp
    3660:	41                   	inc    %ecx
    3661:	53                   	push   %ebx
    3662:	4b                   	dec    %ebx
    3663:	20 30                	and    %dh,(%eax)
    3665:	78 46                	js     36ad <_end+0x1699>
    3667:	46                   	inc    %esi
    3668:	46                   	inc    %esi
    3669:	46                   	inc    %esi
    366a:	30 30                	xor    %dh,(%eax)
    366c:	30 30                	xor    %dh,(%eax)
    366e:	00 01                	add    %al,(%ecx)
    3670:	7b 5f                	jnp    36d1 <_end+0x16bd>
    3672:	49                   	dec    %ecx
    3673:	4f                   	dec    %edi
    3674:	5f                   	pop    %edi
    3675:	55                   	push   %ebp
    3676:	53                   	push   %ebx
    3677:	45                   	inc    %ebp
    3678:	52                   	push   %edx
    3679:	5f                   	pop    %edi
    367a:	42                   	inc    %edx
    367b:	55                   	push   %ebp
    367c:	46                   	inc    %esi
    367d:	20 31                	and    %dh,(%ecx)
    367f:	00 01                	add    %al,(%ecx)
    3681:	7c 5f                	jl     36e2 <_end+0x16ce>
    3683:	49                   	dec    %ecx
    3684:	4f                   	dec    %edi
    3685:	5f                   	pop    %edi
    3686:	55                   	push   %ebp
    3687:	4e                   	dec    %esi
    3688:	42                   	inc    %edx
    3689:	55                   	push   %ebp
    368a:	46                   	inc    %esi
    368b:	46                   	inc    %esi
    368c:	45                   	inc    %ebp
    368d:	52                   	push   %edx
    368e:	45                   	inc    %ebp
    368f:	44                   	inc    %esp
    3690:	20 32                	and    %dh,(%edx)
    3692:	00 01                	add    %al,(%ecx)
    3694:	7d 5f                	jge    36f5 <_end+0x16e1>
    3696:	49                   	dec    %ecx
    3697:	4f                   	dec    %edi
    3698:	5f                   	pop    %edi
    3699:	4e                   	dec    %esi
    369a:	4f                   	dec    %edi
    369b:	5f                   	pop    %edi
    369c:	52                   	push   %edx
    369d:	45                   	inc    %ebp
    369e:	41                   	inc    %ecx
    369f:	44                   	inc    %esp
    36a0:	53                   	push   %ebx
    36a1:	20 34 00             	and    %dh,(%eax,%eax,1)
    36a4:	01 7e 5f             	add    %edi,0x5f(%esi)
    36a7:	49                   	dec    %ecx
    36a8:	4f                   	dec    %edi
    36a9:	5f                   	pop    %edi
    36aa:	4e                   	dec    %esi
    36ab:	4f                   	dec    %edi
    36ac:	5f                   	pop    %edi
    36ad:	57                   	push   %edi
    36ae:	52                   	push   %edx
    36af:	49                   	dec    %ecx
    36b0:	54                   	push   %esp
    36b1:	45                   	inc    %ebp
    36b2:	53                   	push   %ebx
    36b3:	20 38                	and    %bh,(%eax)
    36b5:	00 01                	add    %al,(%ecx)
    36b7:	7f 5f                	jg     3718 <_end+0x1704>
    36b9:	49                   	dec    %ecx
    36ba:	4f                   	dec    %edi
    36bb:	5f                   	pop    %edi
    36bc:	45                   	inc    %ebp
    36bd:	4f                   	dec    %edi
    36be:	46                   	inc    %esi
    36bf:	5f                   	pop    %edi
    36c0:	53                   	push   %ebx
    36c1:	45                   	inc    %ebp
    36c2:	45                   	inc    %ebp
    36c3:	4e                   	dec    %esi
    36c4:	20 30                	and    %dh,(%eax)
    36c6:	78 31                	js     36f9 <_end+0x16e5>
    36c8:	30 00                	xor    %al,(%eax)
    36ca:	01 80 01 5f 49 4f    	add    %eax,0x4f495f01(%eax)
    36d0:	5f                   	pop    %edi
    36d1:	45                   	inc    %ebp
    36d2:	52                   	push   %edx
    36d3:	52                   	push   %edx
    36d4:	5f                   	pop    %edi
    36d5:	53                   	push   %ebx
    36d6:	45                   	inc    %ebp
    36d7:	45                   	inc    %ebp
    36d8:	4e                   	dec    %esi
    36d9:	20 30                	and    %dh,(%eax)
    36db:	78 32                	js     370f <_end+0x16fb>
    36dd:	30 00                	xor    %al,(%eax)
    36df:	01 81 01 5f 49 4f    	add    %eax,0x4f495f01(%ecx)
    36e5:	5f                   	pop    %edi
    36e6:	44                   	inc    %esp
    36e7:	45                   	inc    %ebp
    36e8:	4c                   	dec    %esp
    36e9:	45                   	inc    %ebp
    36ea:	54                   	push   %esp
    36eb:	45                   	inc    %ebp
    36ec:	5f                   	pop    %edi
    36ed:	44                   	inc    %esp
    36ee:	4f                   	dec    %edi
    36ef:	4e                   	dec    %esi
    36f0:	54                   	push   %esp
    36f1:	5f                   	pop    %edi
    36f2:	43                   	inc    %ebx
    36f3:	4c                   	dec    %esp
    36f4:	4f                   	dec    %edi
    36f5:	53                   	push   %ebx
    36f6:	45                   	inc    %ebp
    36f7:	20 30                	and    %dh,(%eax)
    36f9:	78 34                	js     372f <_end+0x171b>
    36fb:	30 00                	xor    %al,(%eax)
    36fd:	01 82 01 5f 49 4f    	add    %eax,0x4f495f01(%edx)
    3703:	5f                   	pop    %edi
    3704:	4c                   	dec    %esp
    3705:	49                   	dec    %ecx
    3706:	4e                   	dec    %esi
    3707:	4b                   	dec    %ebx
    3708:	45                   	inc    %ebp
    3709:	44                   	inc    %esp
    370a:	20 30                	and    %dh,(%eax)
    370c:	78 38                	js     3746 <_end+0x1732>
    370e:	30 00                	xor    %al,(%eax)
    3710:	01 83 01 5f 49 4f    	add    %eax,0x4f495f01(%ebx)
    3716:	5f                   	pop    %edi
    3717:	49                   	dec    %ecx
    3718:	4e                   	dec    %esi
    3719:	5f                   	pop    %edi
    371a:	42                   	inc    %edx
    371b:	41                   	inc    %ecx
    371c:	43                   	inc    %ebx
    371d:	4b                   	dec    %ebx
    371e:	55                   	push   %ebp
    371f:	50                   	push   %eax
    3720:	20 30                	and    %dh,(%eax)
    3722:	78 31                	js     3755 <_end+0x1741>
    3724:	30 30                	xor    %dh,(%eax)
    3726:	00 01                	add    %al,(%ecx)
    3728:	84 01                	test   %al,(%ecx)
    372a:	5f                   	pop    %edi
    372b:	49                   	dec    %ecx
    372c:	4f                   	dec    %edi
    372d:	5f                   	pop    %edi
    372e:	4c                   	dec    %esp
    372f:	49                   	dec    %ecx
    3730:	4e                   	dec    %esi
    3731:	45                   	inc    %ebp
    3732:	5f                   	pop    %edi
    3733:	42                   	inc    %edx
    3734:	55                   	push   %ebp
    3735:	46                   	inc    %esi
    3736:	20 30                	and    %dh,(%eax)
    3738:	78 32                	js     376c <_end+0x1758>
    373a:	30 30                	xor    %dh,(%eax)
    373c:	00 01                	add    %al,(%ecx)
    373e:	85 01                	test   %eax,(%ecx)
    3740:	5f                   	pop    %edi
    3741:	49                   	dec    %ecx
    3742:	4f                   	dec    %edi
    3743:	5f                   	pop    %edi
    3744:	54                   	push   %esp
    3745:	49                   	dec    %ecx
    3746:	45                   	inc    %ebp
    3747:	44                   	inc    %esp
    3748:	5f                   	pop    %edi
    3749:	50                   	push   %eax
    374a:	55                   	push   %ebp
    374b:	54                   	push   %esp
    374c:	5f                   	pop    %edi
    374d:	47                   	inc    %edi
    374e:	45                   	inc    %ebp
    374f:	54                   	push   %esp
    3750:	20 30                	and    %dh,(%eax)
    3752:	78 34                	js     3788 <_end+0x1774>
    3754:	30 30                	xor    %dh,(%eax)
    3756:	00 01                	add    %al,(%ecx)
    3758:	86 01                	xchg   %al,(%ecx)
    375a:	5f                   	pop    %edi
    375b:	49                   	dec    %ecx
    375c:	4f                   	dec    %edi
    375d:	5f                   	pop    %edi
    375e:	43                   	inc    %ebx
    375f:	55                   	push   %ebp
    3760:	52                   	push   %edx
    3761:	52                   	push   %edx
    3762:	45                   	inc    %ebp
    3763:	4e                   	dec    %esi
    3764:	54                   	push   %esp
    3765:	4c                   	dec    %esp
    3766:	59                   	pop    %ecx
    3767:	5f                   	pop    %edi
    3768:	50                   	push   %eax
    3769:	55                   	push   %ebp
    376a:	54                   	push   %esp
    376b:	54                   	push   %esp
    376c:	49                   	dec    %ecx
    376d:	4e                   	dec    %esi
    376e:	47                   	inc    %edi
    376f:	20 30                	and    %dh,(%eax)
    3771:	78 38                	js     37ab <_end+0x1797>
    3773:	30 30                	xor    %dh,(%eax)
    3775:	00 01                	add    %al,(%ecx)
    3777:	87 01                	xchg   %eax,(%ecx)
    3779:	5f                   	pop    %edi
    377a:	49                   	dec    %ecx
    377b:	4f                   	dec    %edi
    377c:	5f                   	pop    %edi
    377d:	49                   	dec    %ecx
    377e:	53                   	push   %ebx
    377f:	5f                   	pop    %edi
    3780:	41                   	inc    %ecx
    3781:	50                   	push   %eax
    3782:	50                   	push   %eax
    3783:	45                   	inc    %ebp
    3784:	4e                   	dec    %esi
    3785:	44                   	inc    %esp
    3786:	49                   	dec    %ecx
    3787:	4e                   	dec    %esi
    3788:	47                   	inc    %edi
    3789:	20 30                	and    %dh,(%eax)
    378b:	78 31                	js     37be <_end+0x17aa>
    378d:	30 30                	xor    %dh,(%eax)
    378f:	30 00                	xor    %al,(%eax)
    3791:	01 88 01 5f 49 4f    	add    %ecx,0x4f495f01(%eax)
    3797:	5f                   	pop    %edi
    3798:	49                   	dec    %ecx
    3799:	53                   	push   %ebx
    379a:	5f                   	pop    %edi
    379b:	46                   	inc    %esi
    379c:	49                   	dec    %ecx
    379d:	4c                   	dec    %esp
    379e:	45                   	inc    %ebp
    379f:	42                   	inc    %edx
    37a0:	55                   	push   %ebp
    37a1:	46                   	inc    %esi
    37a2:	20 30                	and    %dh,(%eax)
    37a4:	78 32                	js     37d8 <_end+0x17c4>
    37a6:	30 30                	xor    %dh,(%eax)
    37a8:	30 00                	xor    %al,(%eax)
    37aa:	01 89 01 5f 49 4f    	add    %ecx,0x4f495f01(%ecx)
    37b0:	5f                   	pop    %edi
    37b1:	42                   	inc    %edx
    37b2:	41                   	inc    %ecx
    37b3:	44                   	inc    %esp
    37b4:	5f                   	pop    %edi
    37b5:	53                   	push   %ebx
    37b6:	45                   	inc    %ebp
    37b7:	45                   	inc    %ebp
    37b8:	4e                   	dec    %esi
    37b9:	20 30                	and    %dh,(%eax)
    37bb:	78 34                	js     37f1 <_end+0x17dd>
    37bd:	30 30                	xor    %dh,(%eax)
    37bf:	30 00                	xor    %al,(%eax)
    37c1:	01 8a 01 5f 49 4f    	add    %ecx,0x4f495f01(%edx)
    37c7:	5f                   	pop    %edi
    37c8:	55                   	push   %ebp
    37c9:	53                   	push   %ebx
    37ca:	45                   	inc    %ebp
    37cb:	52                   	push   %edx
    37cc:	5f                   	pop    %edi
    37cd:	4c                   	dec    %esp
    37ce:	4f                   	dec    %edi
    37cf:	43                   	inc    %ebx
    37d0:	4b                   	dec    %ebx
    37d1:	20 30                	and    %dh,(%eax)
    37d3:	78 38                	js     380d <_end+0x17f9>
    37d5:	30 30                	xor    %dh,(%eax)
    37d7:	30 00                	xor    %al,(%eax)
    37d9:	01 8c 01 5f 49 4f 5f 	add    %ecx,0x5f4f495f(%ecx,%eax,1)
    37e0:	46                   	inc    %esi
    37e1:	4c                   	dec    %esp
    37e2:	41                   	inc    %ecx
    37e3:	47                   	inc    %edi
    37e4:	53                   	push   %ebx
    37e5:	32 5f 4d             	xor    0x4d(%edi),%bl
    37e8:	4d                   	dec    %ebp
    37e9:	41                   	inc    %ecx
    37ea:	50                   	push   %eax
    37eb:	20 31                	and    %dh,(%ecx)
    37ed:	00 01                	add    %al,(%ecx)
    37ef:	8d 01                	lea    (%ecx),%eax
    37f1:	5f                   	pop    %edi
    37f2:	49                   	dec    %ecx
    37f3:	4f                   	dec    %edi
    37f4:	5f                   	pop    %edi
    37f5:	46                   	inc    %esi
    37f6:	4c                   	dec    %esp
    37f7:	41                   	inc    %ecx
    37f8:	47                   	inc    %edi
    37f9:	53                   	push   %ebx
    37fa:	32 5f 4e             	xor    0x4e(%edi),%bl
    37fd:	4f                   	dec    %edi
    37fe:	54                   	push   %esp
    37ff:	43                   	inc    %ebx
    3800:	41                   	inc    %ecx
    3801:	4e                   	dec    %esi
    3802:	43                   	inc    %ebx
    3803:	45                   	inc    %ebp
    3804:	4c                   	dec    %esp
    3805:	20 32                	and    %dh,(%edx)
    3807:	00 01                	add    %al,(%ecx)
    3809:	91                   	xchg   %eax,%ecx
    380a:	01 5f 49             	add    %ebx,0x49(%edi)
    380d:	4f                   	dec    %edi
    380e:	5f                   	pop    %edi
    380f:	46                   	inc    %esi
    3810:	4c                   	dec    %esp
    3811:	41                   	inc    %ecx
    3812:	47                   	inc    %edi
    3813:	53                   	push   %ebx
    3814:	32 5f 55             	xor    0x55(%edi),%bl
    3817:	53                   	push   %ebx
    3818:	45                   	inc    %ebp
    3819:	52                   	push   %edx
    381a:	5f                   	pop    %edi
    381b:	57                   	push   %edi
    381c:	42                   	inc    %edx
    381d:	55                   	push   %ebp
    381e:	46                   	inc    %esi
    381f:	20 38                	and    %bh,(%eax)
    3821:	00 01                	add    %al,(%ecx)
    3823:	99                   	cltd   
    3824:	01 5f 49             	add    %ebx,0x49(%edi)
    3827:	4f                   	dec    %edi
    3828:	5f                   	pop    %edi
    3829:	53                   	push   %ebx
    382a:	4b                   	dec    %ebx
    382b:	49                   	dec    %ecx
    382c:	50                   	push   %eax
    382d:	57                   	push   %edi
    382e:	53                   	push   %ebx
    382f:	20 30                	and    %dh,(%eax)
    3831:	31 00                	xor    %eax,(%eax)
    3833:	01 9a 01 5f 49 4f    	add    %ebx,0x4f495f01(%edx)
    3839:	5f                   	pop    %edi
    383a:	4c                   	dec    %esp
    383b:	45                   	inc    %ebp
    383c:	46                   	inc    %esi
    383d:	54                   	push   %esp
    383e:	20 30                	and    %dh,(%eax)
    3840:	32 00                	xor    (%eax),%al
    3842:	01 9b 01 5f 49 4f    	add    %ebx,0x4f495f01(%ebx)
    3848:	5f                   	pop    %edi
    3849:	52                   	push   %edx
    384a:	49                   	dec    %ecx
    384b:	47                   	inc    %edi
    384c:	48                   	dec    %eax
    384d:	54                   	push   %esp
    384e:	20 30                	and    %dh,(%eax)
    3850:	34 00                	xor    $0x0,%al
    3852:	01 9c 01 5f 49 4f 5f 	add    %ebx,0x5f4f495f(%ecx,%eax,1)
    3859:	49                   	dec    %ecx
    385a:	4e                   	dec    %esi
    385b:	54                   	push   %esp
    385c:	45                   	inc    %ebp
    385d:	52                   	push   %edx
    385e:	4e                   	dec    %esi
    385f:	41                   	inc    %ecx
    3860:	4c                   	dec    %esp
    3861:	20 30                	and    %dh,(%eax)
    3863:	31 30                	xor    %esi,(%eax)
    3865:	00 01                	add    %al,(%ecx)
    3867:	9d                   	popf   
    3868:	01 5f 49             	add    %ebx,0x49(%edi)
    386b:	4f                   	dec    %edi
    386c:	5f                   	pop    %edi
    386d:	44                   	inc    %esp
    386e:	45                   	inc    %ebp
    386f:	43                   	inc    %ebx
    3870:	20 30                	and    %dh,(%eax)
    3872:	32 30                	xor    (%eax),%dh
    3874:	00 01                	add    %al,(%ecx)
    3876:	9e                   	sahf   
    3877:	01 5f 49             	add    %ebx,0x49(%edi)
    387a:	4f                   	dec    %edi
    387b:	5f                   	pop    %edi
    387c:	4f                   	dec    %edi
    387d:	43                   	inc    %ebx
    387e:	54                   	push   %esp
    387f:	20 30                	and    %dh,(%eax)
    3881:	34 30                	xor    $0x30,%al
    3883:	00 01                	add    %al,(%ecx)
    3885:	9f                   	lahf   
    3886:	01 5f 49             	add    %ebx,0x49(%edi)
    3889:	4f                   	dec    %edi
    388a:	5f                   	pop    %edi
    388b:	48                   	dec    %eax
    388c:	45                   	inc    %ebp
    388d:	58                   	pop    %eax
    388e:	20 30                	and    %dh,(%eax)
    3890:	31 30                	xor    %esi,(%eax)
    3892:	30 00                	xor    %al,(%eax)
    3894:	01 a0 01 5f 49 4f    	add    %esp,0x4f495f01(%eax)
    389a:	5f                   	pop    %edi
    389b:	53                   	push   %ebx
    389c:	48                   	dec    %eax
    389d:	4f                   	dec    %edi
    389e:	57                   	push   %edi
    389f:	42                   	inc    %edx
    38a0:	41                   	inc    %ecx
    38a1:	53                   	push   %ebx
    38a2:	45                   	inc    %ebp
    38a3:	20 30                	and    %dh,(%eax)
    38a5:	32 30                	xor    (%eax),%dh
    38a7:	30 00                	xor    %al,(%eax)
    38a9:	01 a1 01 5f 49 4f    	add    %esp,0x4f495f01(%ecx)
    38af:	5f                   	pop    %edi
    38b0:	53                   	push   %ebx
    38b1:	48                   	dec    %eax
    38b2:	4f                   	dec    %edi
    38b3:	57                   	push   %edi
    38b4:	50                   	push   %eax
    38b5:	4f                   	dec    %edi
    38b6:	49                   	dec    %ecx
    38b7:	4e                   	dec    %esi
    38b8:	54                   	push   %esp
    38b9:	20 30                	and    %dh,(%eax)
    38bb:	34 30                	xor    $0x30,%al
    38bd:	30 00                	xor    %al,(%eax)
    38bf:	01 a2 01 5f 49 4f    	add    %esp,0x4f495f01(%edx)
    38c5:	5f                   	pop    %edi
    38c6:	55                   	push   %ebp
    38c7:	50                   	push   %eax
    38c8:	50                   	push   %eax
    38c9:	45                   	inc    %ebp
    38ca:	52                   	push   %edx
    38cb:	43                   	inc    %ebx
    38cc:	41                   	inc    %ecx
    38cd:	53                   	push   %ebx
    38ce:	45                   	inc    %ebp
    38cf:	20 30                	and    %dh,(%eax)
    38d1:	31 30                	xor    %esi,(%eax)
    38d3:	30 30                	xor    %dh,(%eax)
    38d5:	00 01                	add    %al,(%ecx)
    38d7:	a3 01 5f 49 4f       	mov    %eax,0x4f495f01
    38dc:	5f                   	pop    %edi
    38dd:	53                   	push   %ebx
    38de:	48                   	dec    %eax
    38df:	4f                   	dec    %edi
    38e0:	57                   	push   %edi
    38e1:	50                   	push   %eax
    38e2:	4f                   	dec    %edi
    38e3:	53                   	push   %ebx
    38e4:	20 30                	and    %dh,(%eax)
    38e6:	32 30                	xor    (%eax),%dh
    38e8:	30 30                	xor    %dh,(%eax)
    38ea:	00 01                	add    %al,(%ecx)
    38ec:	a4                   	movsb  %ds:(%esi),%es:(%edi)
    38ed:	01 5f 49             	add    %ebx,0x49(%edi)
    38f0:	4f                   	dec    %edi
    38f1:	5f                   	pop    %edi
    38f2:	53                   	push   %ebx
    38f3:	43                   	inc    %ebx
    38f4:	49                   	dec    %ecx
    38f5:	45                   	inc    %ebp
    38f6:	4e                   	dec    %esi
    38f7:	54                   	push   %esp
    38f8:	49                   	dec    %ecx
    38f9:	46                   	inc    %esi
    38fa:	49                   	dec    %ecx
    38fb:	43                   	inc    %ebx
    38fc:	20 30                	and    %dh,(%eax)
    38fe:	34 30                	xor    $0x30,%al
    3900:	30 30                	xor    %dh,(%eax)
    3902:	00 01                	add    %al,(%ecx)
    3904:	a5                   	movsl  %ds:(%esi),%es:(%edi)
    3905:	01 5f 49             	add    %ebx,0x49(%edi)
    3908:	4f                   	dec    %edi
    3909:	5f                   	pop    %edi
    390a:	46                   	inc    %esi
    390b:	49                   	dec    %ecx
    390c:	58                   	pop    %eax
    390d:	45                   	inc    %ebp
    390e:	44                   	inc    %esp
    390f:	20 30                	and    %dh,(%eax)
    3911:	31 30                	xor    %esi,(%eax)
    3913:	30 30                	xor    %dh,(%eax)
    3915:	30 00                	xor    %al,(%eax)
    3917:	01 a6 01 5f 49 4f    	add    %esp,0x4f495f01(%esi)
    391d:	5f                   	pop    %edi
    391e:	55                   	push   %ebp
    391f:	4e                   	dec    %esi
    3920:	49                   	dec    %ecx
    3921:	54                   	push   %esp
    3922:	42                   	inc    %edx
    3923:	55                   	push   %ebp
    3924:	46                   	inc    %esi
    3925:	20 30                	and    %dh,(%eax)
    3927:	32 30                	xor    (%eax),%dh
    3929:	30 30                	xor    %dh,(%eax)
    392b:	30 00                	xor    %al,(%eax)
    392d:	01 a7 01 5f 49 4f    	add    %esp,0x4f495f01(%edi)
    3933:	5f                   	pop    %edi
    3934:	53                   	push   %ebx
    3935:	54                   	push   %esp
    3936:	44                   	inc    %esp
    3937:	49                   	dec    %ecx
    3938:	4f                   	dec    %edi
    3939:	20 30                	and    %dh,(%eax)
    393b:	34 30                	xor    $0x30,%al
    393d:	30 30                	xor    %dh,(%eax)
    393f:	30 00                	xor    %al,(%eax)
    3941:	01 a8 01 5f 49 4f    	add    %ebp,0x4f495f01(%eax)
    3947:	5f                   	pop    %edi
    3948:	44                   	inc    %esp
    3949:	4f                   	dec    %edi
    394a:	4e                   	dec    %esi
    394b:	54                   	push   %esp
    394c:	5f                   	pop    %edi
    394d:	43                   	inc    %ebx
    394e:	4c                   	dec    %esp
    394f:	4f                   	dec    %edi
    3950:	53                   	push   %ebx
    3951:	45                   	inc    %ebp
    3952:	20 30                	and    %dh,(%eax)
    3954:	31 30                	xor    %esi,(%eax)
    3956:	30 30                	xor    %dh,(%eax)
    3958:	30 30                	xor    %dh,(%eax)
    395a:	00 01                	add    %al,(%ecx)
    395c:	a9 01 5f 49 4f       	test   $0x4f495f01,%eax
    3961:	5f                   	pop    %edi
    3962:	42                   	inc    %edx
    3963:	4f                   	dec    %edi
    3964:	4f                   	dec    %edi
    3965:	4c                   	dec    %esp
    3966:	41                   	inc    %ecx
    3967:	4c                   	dec    %esp
    3968:	50                   	push   %eax
    3969:	48                   	dec    %eax
    396a:	41                   	inc    %ecx
    396b:	20 30                	and    %dh,(%eax)
    396d:	32 30                	xor    (%eax),%dh
    396f:	30 30                	xor    %dh,(%eax)
    3971:	30 30                	xor    %dh,(%eax)
    3973:	00 01                	add    %al,(%ecx)
    3975:	93                   	xchg   %eax,%ebx
    3976:	02 5f 49             	add    0x49(%edi),%bl
    3979:	4f                   	dec    %edi
    397a:	5f                   	pop    %edi
    397b:	66 69 6c 65 5f 66 6c 	imul   $0x6c66,0x5f(%ebp,%eiz,2),%bp
    3982:	61                   	popa   
    3983:	67 73 20             	addr16 jae 39a6 <_end+0x1992>
    3986:	5f                   	pop    %edi
    3987:	66                   	data16
    3988:	6c                   	insb   (%dx),%es:(%edi)
    3989:	61                   	popa   
    398a:	67 73 00             	addr16 jae 398d <_end+0x1979>
    398d:	01 b0 02 5f 5f 48    	add    %esi,0x485f5f02(%eax)
    3993:	41                   	inc    %ecx
    3994:	56                   	push   %esi
    3995:	45                   	inc    %ebp
    3996:	5f                   	pop    %edi
    3997:	43                   	inc    %ebx
    3998:	4f                   	dec    %edi
    3999:	4c                   	dec    %esp
    399a:	55                   	push   %ebp
    399b:	4d                   	dec    %ebp
    399c:	4e                   	dec    %esi
    399d:	20 00                	and    %al,(%eax)
    399f:	01 e0                	add    %esp,%eax
    39a1:	02 5f 49             	add    0x49(%edi),%bl
    39a4:	4f                   	dec    %edi
    39a5:	5f                   	pop    %edi
    39a6:	73 74                	jae    3a1c <_end+0x1a08>
    39a8:	64 69 6e 20 28 28 5f 	imul   $0x495f2828,%fs:0x20(%esi),%ebp
    39af:	49 
    39b0:	4f                   	dec    %edi
    39b1:	5f                   	pop    %edi
    39b2:	46                   	inc    %esi
    39b3:	49                   	dec    %ecx
    39b4:	4c                   	dec    %esp
    39b5:	45                   	inc    %ebp
    39b6:	2a 29                	sub    (%ecx),%ch
    39b8:	28 26                	sub    %ah,(%esi)
    39ba:	5f                   	pop    %edi
    39bb:	49                   	dec    %ecx
    39bc:	4f                   	dec    %edi
    39bd:	5f                   	pop    %edi
    39be:	32 5f 31             	xor    0x31(%edi),%bl
    39c1:	5f                   	pop    %edi
    39c2:	73 74                	jae    3a38 <_end+0x1a24>
    39c4:	64 69 6e 5f 29 29 00 	imul   $0x1002929,%fs:0x5f(%esi),%ebp
    39cb:	01 
    39cc:	e1 02                	loope  39d0 <_end+0x19bc>
    39ce:	5f                   	pop    %edi
    39cf:	49                   	dec    %ecx
    39d0:	4f                   	dec    %edi
    39d1:	5f                   	pop    %edi
    39d2:	73 74                	jae    3a48 <_end+0x1a34>
    39d4:	64 6f                	outsl  %fs:(%esi),(%dx)
    39d6:	75 74                	jne    3a4c <_end+0x1a38>
    39d8:	20 28                	and    %ch,(%eax)
    39da:	28 5f 49             	sub    %bl,0x49(%edi)
    39dd:	4f                   	dec    %edi
    39de:	5f                   	pop    %edi
    39df:	46                   	inc    %esi
    39e0:	49                   	dec    %ecx
    39e1:	4c                   	dec    %esp
    39e2:	45                   	inc    %ebp
    39e3:	2a 29                	sub    (%ecx),%ch
    39e5:	28 26                	sub    %ah,(%esi)
    39e7:	5f                   	pop    %edi
    39e8:	49                   	dec    %ecx
    39e9:	4f                   	dec    %edi
    39ea:	5f                   	pop    %edi
    39eb:	32 5f 31             	xor    0x31(%edi),%bl
    39ee:	5f                   	pop    %edi
    39ef:	73 74                	jae    3a65 <_end+0x1a51>
    39f1:	64 6f                	outsl  %fs:(%esi),(%dx)
    39f3:	75 74                	jne    3a69 <_end+0x1a55>
    39f5:	5f                   	pop    %edi
    39f6:	29 29                	sub    %ebp,(%ecx)
    39f8:	00 01                	add    %al,(%ecx)
    39fa:	e2 02                	loop   39fe <_end+0x19ea>
    39fc:	5f                   	pop    %edi
    39fd:	49                   	dec    %ecx
    39fe:	4f                   	dec    %edi
    39ff:	5f                   	pop    %edi
    3a00:	73 74                	jae    3a76 <_end+0x1a62>
    3a02:	64                   	fs
    3a03:	65                   	gs
    3a04:	72 72                	jb     3a78 <_end+0x1a64>
    3a06:	20 28                	and    %ch,(%eax)
    3a08:	28 5f 49             	sub    %bl,0x49(%edi)
    3a0b:	4f                   	dec    %edi
    3a0c:	5f                   	pop    %edi
    3a0d:	46                   	inc    %esi
    3a0e:	49                   	dec    %ecx
    3a0f:	4c                   	dec    %esp
    3a10:	45                   	inc    %ebp
    3a11:	2a 29                	sub    (%ecx),%ch
    3a13:	28 26                	sub    %ah,(%esi)
    3a15:	5f                   	pop    %edi
    3a16:	49                   	dec    %ecx
    3a17:	4f                   	dec    %edi
    3a18:	5f                   	pop    %edi
    3a19:	32 5f 31             	xor    0x31(%edi),%bl
    3a1c:	5f                   	pop    %edi
    3a1d:	73 74                	jae    3a93 <_end+0x1a7f>
    3a1f:	64                   	fs
    3a20:	65                   	gs
    3a21:	72 72                	jb     3a95 <_end+0x1a81>
    3a23:	5f                   	pop    %edi
    3a24:	29 29                	sub    %ebp,(%ecx)
    3a26:	00 01                	add    %al,(%ecx)
    3a28:	ac                   	lods   %ds:(%esi),%al
    3a29:	03 5f 49             	add    0x49(%edi),%ebx
    3a2c:	4f                   	dec    %edi
    3a2d:	5f                   	pop    %edi
    3a2e:	42                   	inc    %edx
    3a2f:	45                   	inc    %ebp
    3a30:	28 65 78             	sub    %ah,0x78(%ebp)
    3a33:	70 72                	jo     3aa7 <_end+0x1a93>
    3a35:	2c 72                	sub    $0x72,%al
    3a37:	65                   	gs
    3a38:	73 29                	jae    3a63 <_end+0x1a4f>
    3a3a:	20 5f 5f             	and    %bl,0x5f(%edi)
    3a3d:	62 75 69             	bound  %esi,0x69(%ebp)
    3a40:	6c                   	insb   (%dx),%es:(%edi)
    3a41:	74 69                	je     3aac <_end+0x1a98>
    3a43:	6e                   	outsb  %ds:(%esi),(%dx)
    3a44:	5f                   	pop    %edi
    3a45:	65                   	gs
    3a46:	78 70                	js     3ab8 <_end+0x1aa4>
    3a48:	65 63 74 20 28       	arpl   %si,%gs:0x28(%eax,%eiz,1)
    3a4d:	28 65 78             	sub    %ah,0x78(%ebp)
    3a50:	70 72                	jo     3ac4 <_end+0x1ab0>
    3a52:	29 2c 20             	sub    %ebp,(%eax,%eiz,1)
    3a55:	72 65                	jb     3abc <_end+0x1aa8>
    3a57:	73 29                	jae    3a82 <_end+0x1a6e>
    3a59:	00 01                	add    %al,(%ecx)
    3a5b:	b1 03                	mov    $0x3,%cl
    3a5d:	5f                   	pop    %edi
    3a5e:	49                   	dec    %ecx
    3a5f:	4f                   	dec    %edi
    3a60:	5f                   	pop    %edi
    3a61:	67                   	addr16
    3a62:	65                   	gs
    3a63:	74 63                	je     3ac8 <_end+0x1ab4>
    3a65:	5f                   	pop    %edi
    3a66:	75 6e                	jne    3ad6 <_end+0x1ac2>
    3a68:	6c                   	insb   (%dx),%es:(%edi)
    3a69:	6f                   	outsl  %ds:(%esi),(%dx)
    3a6a:	63 6b 65             	arpl   %bp,0x65(%ebx)
    3a6d:	64 28 5f 66          	sub    %bl,%fs:0x66(%edi)
    3a71:	70 29                	jo     3a9c <_end+0x1a88>
    3a73:	20 28                	and    %ch,(%eax)
    3a75:	5f                   	pop    %edi
    3a76:	49                   	dec    %ecx
    3a77:	4f                   	dec    %edi
    3a78:	5f                   	pop    %edi
    3a79:	42                   	inc    %edx
    3a7a:	45                   	inc    %ebp
    3a7b:	20 28                	and    %ch,(%eax)
    3a7d:	28 5f 66             	sub    %bl,0x66(%edi)
    3a80:	70 29                	jo     3aab <_end+0x1a97>
    3a82:	2d 3e 5f 49 4f       	sub    $0x4f495f3e,%eax
    3a87:	5f                   	pop    %edi
    3a88:	72 65                	jb     3aef <_end+0x1adb>
    3a8a:	61                   	popa   
    3a8b:	64                   	fs
    3a8c:	5f                   	pop    %edi
    3a8d:	70 74                	jo     3b03 <_end+0x1aef>
    3a8f:	72 20                	jb     3ab1 <_end+0x1a9d>
    3a91:	3e                   	ds
    3a92:	3d 20 28 5f 66       	cmp    $0x665f2820,%eax
    3a97:	70 29                	jo     3ac2 <_end+0x1aae>
    3a99:	2d 3e 5f 49 4f       	sub    $0x4f495f3e,%eax
    3a9e:	5f                   	pop    %edi
    3a9f:	72 65                	jb     3b06 <_end+0x1af2>
    3aa1:	61                   	popa   
    3aa2:	64                   	fs
    3aa3:	5f                   	pop    %edi
    3aa4:	65 6e                	outsb  %gs:(%esi),(%dx)
    3aa6:	64                   	fs
    3aa7:	2c 20                	sub    $0x20,%al
    3aa9:	30 29                	xor    %ch,(%ecx)
    3aab:	20 3f                	and    %bh,(%edi)
    3aad:	20 5f 5f             	and    %bl,0x5f(%edi)
    3ab0:	75 66                	jne    3b18 <_end+0x1b04>
    3ab2:	6c                   	insb   (%dx),%es:(%edi)
    3ab3:	6f                   	outsl  %ds:(%esi),(%dx)
    3ab4:	77 20                	ja     3ad6 <_end+0x1ac2>
    3ab6:	28 5f 66             	sub    %bl,0x66(%edi)
    3ab9:	70 29                	jo     3ae4 <_end+0x1ad0>
    3abb:	20 3a                	and    %bh,(%edx)
    3abd:	20 2a                	and    %ch,(%edx)
    3abf:	28 75 6e             	sub    %dh,0x6e(%ebp)
    3ac2:	73 69                	jae    3b2d <_end+0x1b19>
    3ac4:	67 6e                	outsb  %ds:(%si),(%dx)
    3ac6:	65 64 20 63 68       	gs and %ah,%fs:%gs:0x68(%ebx)
    3acb:	61                   	popa   
    3acc:	72 20                	jb     3aee <_end+0x1ada>
    3ace:	2a 29                	sub    (%ecx),%ch
    3ad0:	20 28                	and    %ch,(%eax)
    3ad2:	5f                   	pop    %edi
    3ad3:	66                   	data16
    3ad4:	70 29                	jo     3aff <_end+0x1aeb>
    3ad6:	2d 3e 5f 49 4f       	sub    $0x4f495f3e,%eax
    3adb:	5f                   	pop    %edi
    3adc:	72 65                	jb     3b43 <_end+0x1b2f>
    3ade:	61                   	popa   
    3adf:	64                   	fs
    3ae0:	5f                   	pop    %edi
    3ae1:	70 74                	jo     3b57 <_end+0x1b43>
    3ae3:	72 2b                	jb     3b10 <_end+0x1afc>
    3ae5:	2b 29                	sub    (%ecx),%ebp
    3ae7:	00 01                	add    %al,(%ecx)
    3ae9:	b4 03                	mov    $0x3,%ah
    3aeb:	5f                   	pop    %edi
    3aec:	49                   	dec    %ecx
    3aed:	4f                   	dec    %edi
    3aee:	5f                   	pop    %edi
    3aef:	70 65                	jo     3b56 <_end+0x1b42>
    3af1:	65 6b 63 5f 75       	imul   $0x75,%gs:0x5f(%ebx),%esp
    3af6:	6e                   	outsb  %ds:(%esi),(%dx)
    3af7:	6c                   	insb   (%dx),%es:(%edi)
    3af8:	6f                   	outsl  %ds:(%esi),(%dx)
    3af9:	63 6b 65             	arpl   %bp,0x65(%ebx)
    3afc:	64 28 5f 66          	sub    %bl,%fs:0x66(%edi)
    3b00:	70 29                	jo     3b2b <_end+0x1b17>
    3b02:	20 28                	and    %ch,(%eax)
    3b04:	5f                   	pop    %edi
    3b05:	49                   	dec    %ecx
    3b06:	4f                   	dec    %edi
    3b07:	5f                   	pop    %edi
    3b08:	42                   	inc    %edx
    3b09:	45                   	inc    %ebp
    3b0a:	20 28                	and    %ch,(%eax)
    3b0c:	28 5f 66             	sub    %bl,0x66(%edi)
    3b0f:	70 29                	jo     3b3a <_end+0x1b26>
    3b11:	2d 3e 5f 49 4f       	sub    $0x4f495f3e,%eax
    3b16:	5f                   	pop    %edi
    3b17:	72 65                	jb     3b7e <_end+0x1b6a>
    3b19:	61                   	popa   
    3b1a:	64                   	fs
    3b1b:	5f                   	pop    %edi
    3b1c:	70 74                	jo     3b92 <_end+0x1b7e>
    3b1e:	72 20                	jb     3b40 <_end+0x1b2c>
    3b20:	3e                   	ds
    3b21:	3d 20 28 5f 66       	cmp    $0x665f2820,%eax
    3b26:	70 29                	jo     3b51 <_end+0x1b3d>
    3b28:	2d 3e 5f 49 4f       	sub    $0x4f495f3e,%eax
    3b2d:	5f                   	pop    %edi
    3b2e:	72 65                	jb     3b95 <_end+0x1b81>
    3b30:	61                   	popa   
    3b31:	64                   	fs
    3b32:	5f                   	pop    %edi
    3b33:	65 6e                	outsb  %gs:(%esi),(%dx)
    3b35:	64                   	fs
    3b36:	2c 20                	sub    $0x20,%al
    3b38:	30 29                	xor    %ch,(%ecx)
    3b3a:	20 26                	and    %ah,(%esi)
    3b3c:	26 20 5f 5f          	and    %bl,%es:0x5f(%edi)
    3b40:	75 6e                	jne    3bb0 <_end+0x1b9c>
    3b42:	64                   	fs
    3b43:	65                   	gs
    3b44:	72 66                	jb     3bac <_end+0x1b98>
    3b46:	6c                   	insb   (%dx),%es:(%edi)
    3b47:	6f                   	outsl  %ds:(%esi),(%dx)
    3b48:	77 20                	ja     3b6a <_end+0x1b56>
    3b4a:	28 5f 66             	sub    %bl,0x66(%edi)
    3b4d:	70 29                	jo     3b78 <_end+0x1b64>
    3b4f:	20 3d 3d 20 45 4f    	and    %bh,0x4f45203d
    3b55:	46                   	inc    %esi
    3b56:	20 3f                	and    %bh,(%edi)
    3b58:	20 45 4f             	and    %al,0x4f(%ebp)
    3b5b:	46                   	inc    %esi
    3b5c:	20 3a                	and    %bh,(%edx)
    3b5e:	20 2a                	and    %ch,(%edx)
    3b60:	28 75 6e             	sub    %dh,0x6e(%ebp)
    3b63:	73 69                	jae    3bce <_end+0x1bba>
    3b65:	67 6e                	outsb  %ds:(%si),(%dx)
    3b67:	65 64 20 63 68       	gs and %ah,%fs:%gs:0x68(%ebx)
    3b6c:	61                   	popa   
    3b6d:	72 20                	jb     3b8f <_end+0x1b7b>
    3b6f:	2a 29                	sub    (%ecx),%ch
    3b71:	20 28                	and    %ch,(%eax)
    3b73:	5f                   	pop    %edi
    3b74:	66                   	data16
    3b75:	70 29                	jo     3ba0 <_end+0x1b8c>
    3b77:	2d 3e 5f 49 4f       	sub    $0x4f495f3e,%eax
    3b7c:	5f                   	pop    %edi
    3b7d:	72 65                	jb     3be4 <_end+0x1bd0>
    3b7f:	61                   	popa   
    3b80:	64                   	fs
    3b81:	5f                   	pop    %edi
    3b82:	70 74                	jo     3bf8 <_end+0x1be4>
    3b84:	72 29                	jb     3baf <_end+0x1b9b>
    3b86:	00 01                	add    %al,(%ecx)
    3b88:	b8 03 5f 49 4f       	mov    $0x4f495f03,%eax
    3b8d:	5f                   	pop    %edi
    3b8e:	70 75                	jo     3c05 <_end+0x1bf1>
    3b90:	74 63                	je     3bf5 <_end+0x1be1>
    3b92:	5f                   	pop    %edi
    3b93:	75 6e                	jne    3c03 <_end+0x1bef>
    3b95:	6c                   	insb   (%dx),%es:(%edi)
    3b96:	6f                   	outsl  %ds:(%esi),(%dx)
    3b97:	63 6b 65             	arpl   %bp,0x65(%ebx)
    3b9a:	64 28 5f 63          	sub    %bl,%fs:0x63(%edi)
    3b9e:	68 2c 5f 66 70       	push   $0x70665f2c
    3ba3:	29 20                	sub    %esp,(%eax)
    3ba5:	28 5f 49             	sub    %bl,0x49(%edi)
    3ba8:	4f                   	dec    %edi
    3ba9:	5f                   	pop    %edi
    3baa:	42                   	inc    %edx
    3bab:	45                   	inc    %ebp
    3bac:	20 28                	and    %ch,(%eax)
    3bae:	28 5f 66             	sub    %bl,0x66(%edi)
    3bb1:	70 29                	jo     3bdc <_end+0x1bc8>
    3bb3:	2d 3e 5f 49 4f       	sub    $0x4f495f3e,%eax
    3bb8:	5f                   	pop    %edi
    3bb9:	77 72                	ja     3c2d <_end+0x1c19>
    3bbb:	69 74 65 5f 70 74 72 	imul   $0x20727470,0x5f(%ebp,%eiz,2),%esi
    3bc2:	20 
    3bc3:	3e                   	ds
    3bc4:	3d 20 28 5f 66       	cmp    $0x665f2820,%eax
    3bc9:	70 29                	jo     3bf4 <_end+0x1be0>
    3bcb:	2d 3e 5f 49 4f       	sub    $0x4f495f3e,%eax
    3bd0:	5f                   	pop    %edi
    3bd1:	77 72                	ja     3c45 <_end+0x1c31>
    3bd3:	69 74 65 5f 65 6e 64 	imul   $0x2c646e65,0x5f(%ebp,%eiz,2),%esi
    3bda:	2c 
    3bdb:	20 30                	and    %dh,(%eax)
    3bdd:	29 20                	sub    %esp,(%eax)
    3bdf:	3f                   	aas    
    3be0:	20 5f 5f             	and    %bl,0x5f(%edi)
    3be3:	6f                   	outsl  %ds:(%esi),(%dx)
    3be4:	76 65                	jbe    3c4b <_end+0x1c37>
    3be6:	72 66                	jb     3c4e <_end+0x1c3a>
    3be8:	6c                   	insb   (%dx),%es:(%edi)
    3be9:	6f                   	outsl  %ds:(%esi),(%dx)
    3bea:	77 20                	ja     3c0c <_end+0x1bf8>
    3bec:	28 5f 66             	sub    %bl,0x66(%edi)
    3bef:	70 2c                	jo     3c1d <_end+0x1c09>
    3bf1:	20 28                	and    %ch,(%eax)
    3bf3:	75 6e                	jne    3c63 <_end+0x1c4f>
    3bf5:	73 69                	jae    3c60 <_end+0x1c4c>
    3bf7:	67 6e                	outsb  %ds:(%si),(%dx)
    3bf9:	65 64 20 63 68       	gs and %ah,%fs:%gs:0x68(%ebx)
    3bfe:	61                   	popa   
    3bff:	72 29                	jb     3c2a <_end+0x1c16>
    3c01:	20 28                	and    %ch,(%eax)
    3c03:	5f                   	pop    %edi
    3c04:	63 68 29             	arpl   %bp,0x29(%eax)
    3c07:	29 20                	sub    %esp,(%eax)
    3c09:	3a 20                	cmp    (%eax),%ah
    3c0b:	28 75 6e             	sub    %dh,0x6e(%ebp)
    3c0e:	73 69                	jae    3c79 <_end+0x1c65>
    3c10:	67 6e                	outsb  %ds:(%si),(%dx)
    3c12:	65 64 20 63 68       	gs and %ah,%fs:%gs:0x68(%ebx)
    3c17:	61                   	popa   
    3c18:	72 29                	jb     3c43 <_end+0x1c2f>
    3c1a:	20 28                	and    %ch,(%eax)
    3c1c:	2a 28                	sub    (%eax),%ch
    3c1e:	5f                   	pop    %edi
    3c1f:	66                   	data16
    3c20:	70 29                	jo     3c4b <_end+0x1c37>
    3c22:	2d 3e 5f 49 4f       	sub    $0x4f495f3e,%eax
    3c27:	5f                   	pop    %edi
    3c28:	77 72                	ja     3c9c <_end+0x1c88>
    3c2a:	69 74 65 5f 70 74 72 	imul   $0x2b727470,0x5f(%ebp,%eiz,2),%esi
    3c31:	2b 
    3c32:	2b 20                	sub    (%eax),%esp
    3c34:	3d 20 28 5f 63       	cmp    $0x635f2820,%eax
    3c39:	68 29 29 29 00       	push   $0x292929
    3c3e:	01 cb                	add    %ecx,%ebx
    3c40:	03 5f 49             	add    0x49(%edi),%ebx
    3c43:	4f                   	dec    %edi
    3c44:	5f                   	pop    %edi
    3c45:	66 65 6f             	outsw  %gs:(%esi),(%dx)
    3c48:	66 5f                	pop    %di
    3c4a:	75 6e                	jne    3cba <_end+0x1ca6>
    3c4c:	6c                   	insb   (%dx),%es:(%edi)
    3c4d:	6f                   	outsl  %ds:(%esi),(%dx)
    3c4e:	63 6b 65             	arpl   %bp,0x65(%ebx)
    3c51:	64 28 5f 5f          	sub    %bl,%fs:0x5f(%edi)
    3c55:	66                   	data16
    3c56:	70 29                	jo     3c81 <_end+0x1c6d>
    3c58:	20 28                	and    %ch,(%eax)
    3c5a:	28 28                	sub    %ch,(%eax)
    3c5c:	5f                   	pop    %edi
    3c5d:	5f                   	pop    %edi
    3c5e:	66                   	data16
    3c5f:	70 29                	jo     3c8a <_end+0x1c76>
    3c61:	2d 3e 5f 66 6c       	sub    $0x6c665f3e,%eax
    3c66:	61                   	popa   
    3c67:	67 73 20             	addr16 jae 3c8a <_end+0x1c76>
    3c6a:	26 20 5f 49          	and    %bl,%es:0x49(%edi)
    3c6e:	4f                   	dec    %edi
    3c6f:	5f                   	pop    %edi
    3c70:	45                   	inc    %ebp
    3c71:	4f                   	dec    %edi
    3c72:	46                   	inc    %esi
    3c73:	5f                   	pop    %edi
    3c74:	53                   	push   %ebx
    3c75:	45                   	inc    %ebp
    3c76:	45                   	inc    %ebp
    3c77:	4e                   	dec    %esi
    3c78:	29 20                	sub    %esp,(%eax)
    3c7a:	21 3d 20 30 29 00    	and    %edi,0x293020
    3c80:	01 cc                	add    %ecx,%esp
    3c82:	03 5f 49             	add    0x49(%edi),%ebx
    3c85:	4f                   	dec    %edi
    3c86:	5f                   	pop    %edi
    3c87:	66                   	data16
    3c88:	65                   	gs
    3c89:	72 72                	jb     3cfd <_end+0x1ce9>
    3c8b:	6f                   	outsl  %ds:(%esi),(%dx)
    3c8c:	72 5f                	jb     3ced <_end+0x1cd9>
    3c8e:	75 6e                	jne    3cfe <_end+0x1cea>
    3c90:	6c                   	insb   (%dx),%es:(%edi)
    3c91:	6f                   	outsl  %ds:(%esi),(%dx)
    3c92:	63 6b 65             	arpl   %bp,0x65(%ebx)
    3c95:	64 28 5f 5f          	sub    %bl,%fs:0x5f(%edi)
    3c99:	66                   	data16
    3c9a:	70 29                	jo     3cc5 <_end+0x1cb1>
    3c9c:	20 28                	and    %ch,(%eax)
    3c9e:	28 28                	sub    %ch,(%eax)
    3ca0:	5f                   	pop    %edi
    3ca1:	5f                   	pop    %edi
    3ca2:	66                   	data16
    3ca3:	70 29                	jo     3cce <_end+0x1cba>
    3ca5:	2d 3e 5f 66 6c       	sub    $0x6c665f3e,%eax
    3caa:	61                   	popa   
    3cab:	67 73 20             	addr16 jae 3cce <_end+0x1cba>
    3cae:	26 20 5f 49          	and    %bl,%es:0x49(%edi)
    3cb2:	4f                   	dec    %edi
    3cb3:	5f                   	pop    %edi
    3cb4:	45                   	inc    %ebp
    3cb5:	52                   	push   %edx
    3cb6:	52                   	push   %edx
    3cb7:	5f                   	pop    %edi
    3cb8:	53                   	push   %ebx
    3cb9:	45                   	inc    %ebp
    3cba:	45                   	inc    %ebp
    3cbb:	4e                   	dec    %esi
    3cbc:	29 20                	sub    %esp,(%eax)
    3cbe:	21 3d 20 30 29 00    	and    %edi,0x293020
    3cc4:	01 d6                	add    %edx,%esi
    3cc6:	03 5f 49             	add    0x49(%edi),%ebx
    3cc9:	4f                   	dec    %edi
    3cca:	5f                   	pop    %edi
    3ccb:	50                   	push   %eax
    3ccc:	45                   	inc    %ebp
    3ccd:	4e                   	dec    %esi
    3cce:	44                   	inc    %esp
    3ccf:	49                   	dec    %ecx
    3cd0:	4e                   	dec    %esi
    3cd1:	47                   	inc    %edi
    3cd2:	5f                   	pop    %edi
    3cd3:	4f                   	dec    %edi
    3cd4:	55                   	push   %ebp
    3cd5:	54                   	push   %esp
    3cd6:	50                   	push   %eax
    3cd7:	55                   	push   %ebp
    3cd8:	54                   	push   %esp
    3cd9:	5f                   	pop    %edi
    3cda:	43                   	inc    %ebx
    3cdb:	4f                   	dec    %edi
    3cdc:	55                   	push   %ebp
    3cdd:	4e                   	dec    %esi
    3cde:	54                   	push   %esp
    3cdf:	28 5f 66             	sub    %bl,0x66(%edi)
    3ce2:	70 29                	jo     3d0d <_end+0x1cf9>
    3ce4:	20 28                	and    %ch,(%eax)
    3ce6:	28 5f 66             	sub    %bl,0x66(%edi)
    3ce9:	70 29                	jo     3d14 <_end+0x1d00>
    3ceb:	2d 3e 5f 49 4f       	sub    $0x4f495f3e,%eax
    3cf0:	5f                   	pop    %edi
    3cf1:	77 72                	ja     3d65 <_end+0x1d51>
    3cf3:	69 74 65 5f 70 74 72 	imul   $0x20727470,0x5f(%ebp,%eiz,2),%esi
    3cfa:	20 
    3cfb:	2d 20 28 5f 66       	sub    $0x665f2820,%eax
    3d00:	70 29                	jo     3d2b <_end+0x1d17>
    3d02:	2d 3e 5f 49 4f       	sub    $0x4f495f3e,%eax
    3d07:	5f                   	pop    %edi
    3d08:	77 72                	ja     3d7c <_end+0x1d68>
    3d0a:	69 74 65 5f 62 61 73 	imul   $0x65736162,0x5f(%ebp,%eiz,2),%esi
    3d11:	65 
    3d12:	29 00                	sub    %eax,(%eax)
    3d14:	01 e4                	add    %esp,%esp
    3d16:	03 5f 49             	add    0x49(%edi),%ebx
    3d19:	4f                   	dec    %edi
    3d1a:	5f                   	pop    %edi
    3d1b:	70 65                	jo     3d82 <_end+0x1d6e>
    3d1d:	65 6b 63 28 5f       	imul   $0x5f,%gs:0x28(%ebx),%esp
    3d22:	66                   	data16
    3d23:	70 29                	jo     3d4e <_end+0x1d3a>
    3d25:	20 5f 49             	and    %bl,0x49(%edi)
    3d28:	4f                   	dec    %edi
    3d29:	5f                   	pop    %edi
    3d2a:	70 65                	jo     3d91 <_end+0x1d7d>
    3d2c:	65 6b 63 5f 75       	imul   $0x75,%gs:0x5f(%ebx),%esp
    3d31:	6e                   	outsb  %ds:(%esi),(%dx)
    3d32:	6c                   	insb   (%dx),%es:(%edi)
    3d33:	6f                   	outsl  %ds:(%esi),(%dx)
    3d34:	63 6b 65             	arpl   %bp,0x65(%ebx)
    3d37:	64 20 28             	and    %ch,%fs:(%eax)
    3d3a:	5f                   	pop    %edi
    3d3b:	66                   	data16
    3d3c:	70 29                	jo     3d67 <_end+0x1d53>
    3d3e:	00 01                	add    %al,(%ecx)
    3d40:	e5 03                	in     $0x3,%eax
    3d42:	5f                   	pop    %edi
    3d43:	49                   	dec    %ecx
    3d44:	4f                   	dec    %edi
    3d45:	5f                   	pop    %edi
    3d46:	66                   	data16
    3d47:	6c                   	insb   (%dx),%es:(%edi)
    3d48:	6f                   	outsl  %ds:(%esi),(%dx)
    3d49:	63 6b 66             	arpl   %bp,0x66(%ebx)
    3d4c:	69 6c 65 28 5f 66 70 	imul   $0x2970665f,0x28(%ebp,%eiz,2),%ebp
    3d53:	29 
    3d54:	20 00                	and    %al,(%eax)
    3d56:	01 e6                	add    %esp,%esi
    3d58:	03 5f 49             	add    0x49(%edi),%ebx
    3d5b:	4f                   	dec    %edi
    3d5c:	5f                   	pop    %edi
    3d5d:	66                   	data16
    3d5e:	75 6e                	jne    3dce <_end+0x1dba>
    3d60:	6c                   	insb   (%dx),%es:(%edi)
    3d61:	6f                   	outsl  %ds:(%esi),(%dx)
    3d62:	63 6b 66             	arpl   %bp,0x66(%ebx)
    3d65:	69 6c 65 28 5f 66 70 	imul   $0x2970665f,0x28(%ebp,%eiz,2),%ebp
    3d6c:	29 
    3d6d:	20 00                	and    %al,(%eax)
    3d6f:	01 e7                	add    %esp,%edi
    3d71:	03 5f 49             	add    0x49(%edi),%ebx
    3d74:	4f                   	dec    %edi
    3d75:	5f                   	pop    %edi
    3d76:	66                   	data16
    3d77:	74 72                	je     3deb <_end+0x1dd7>
    3d79:	79 6c                	jns    3de7 <_end+0x1dd3>
    3d7b:	6f                   	outsl  %ds:(%esi),(%dx)
    3d7c:	63 6b 66             	arpl   %bp,0x66(%ebx)
    3d7f:	69 6c 65 28 5f 66 70 	imul   $0x2970665f,0x28(%ebp,%eiz,2),%ebp
    3d86:	29 
    3d87:	20 00                	and    %al,(%eax)
    3d89:	01 e8                	add    %ebp,%eax
    3d8b:	03 5f 49             	add    0x49(%edi),%ebx
    3d8e:	4f                   	dec    %edi
    3d8f:	5f                   	pop    %edi
    3d90:	63 6c 65 61          	arpl   %bp,0x61(%ebp,%eiz,2)
    3d94:	6e                   	outsb  %ds:(%esi),(%dx)
    3d95:	75 70                	jne    3e07 <_end+0x1df3>
    3d97:	5f                   	pop    %edi
    3d98:	72 65                	jb     3dff <_end+0x1deb>
    3d9a:	67 69 6f 6e 5f 73 74 	imul   $0x6174735f,0x6e(%bx),%ebp
    3da1:	61 
    3da2:	72 74                	jb     3e18 <_end+0x1e04>
    3da4:	28 5f 66             	sub    %bl,0x66(%edi)
    3da7:	63 74 2c 5f          	arpl   %si,0x5f(%esp,%ebp,1)
    3dab:	66                   	data16
    3dac:	70 29                	jo     3dd7 <_end+0x1dc3>
    3dae:	20 00                	and    %al,(%eax)
    3db0:	01 e9                	add    %ebp,%ecx
    3db2:	03 5f 49             	add    0x49(%edi),%ebx
    3db5:	4f                   	dec    %edi
    3db6:	5f                   	pop    %edi
    3db7:	63 6c 65 61          	arpl   %bp,0x61(%ebp,%eiz,2)
    3dbb:	6e                   	outsb  %ds:(%esi),(%dx)
    3dbc:	75 70                	jne    3e2e <_end+0x1e1a>
    3dbe:	5f                   	pop    %edi
    3dbf:	72 65                	jb     3e26 <_end+0x1e12>
    3dc1:	67 69 6f 6e 5f 65 6e 	imul   $0x646e655f,0x6e(%bx),%ebp
    3dc8:	64 
    3dc9:	28 5f 44             	sub    %bl,0x44(%edi)
    3dcc:	6f                   	outsl  %ds:(%esi),(%dx)
    3dcd:	69 74 29 20 00 04 01 	imul   $0x51010400,0x20(%ecx,%ebp,1),%esi
    3dd4:	51 
    3dd5:	5f                   	pop    %edi
    3dd6:	56                   	push   %esi
    3dd7:	41                   	inc    %ecx
    3dd8:	5f                   	pop    %edi
    3dd9:	4c                   	dec    %esp
    3dda:	49                   	dec    %ecx
    3ddb:	53                   	push   %ebx
    3ddc:	54                   	push   %esp
    3ddd:	5f                   	pop    %edi
    3dde:	44                   	inc    %esp
    3ddf:	45                   	inc    %ebp
    3de0:	46                   	inc    %esi
    3de1:	49                   	dec    %ecx
    3de2:	4e                   	dec    %esi
    3de3:	45                   	inc    %ebp
    3de4:	44                   	inc    %esp
    3de5:	20 00                	and    %al,(%eax)
    3de7:	01 5f 5f             	add    %ebx,0x5f(%edi)
    3dea:	5f                   	pop    %edi
    3deb:	6f                   	outsl  %ds:(%esi),(%dx)
    3dec:	66 66 5f             	data32 pop %di
    3def:	74 5f                	je     3e50 <_end+0x1e3c>
    3df1:	64 65 66 69 6e 65 64 	fs imul $0x2064,%fs:%gs:0x65(%esi),%bp
    3df8:	20 
    3df9:	00 01                	add    %al,(%ecx)
    3dfb:	68 5f 5f 73 73       	push   $0x73735f5f
    3e00:	69 7a 65 5f 74 5f 64 	imul   $0x645f745f,0x65(%edx),%edi
    3e07:	65 66 69 6e 65 64 20 	imul   $0x2064,%gs:0x65(%esi),%bp
    3e0e:	00 01                	add    %al,(%ecx)
    3e10:	79 5f                	jns    3e71 <_end+0x1e5d>
    3e12:	49                   	dec    %ecx
    3e13:	4f                   	dec    %edi
    3e14:	46                   	inc    %esi
    3e15:	42                   	inc    %edx
    3e16:	46                   	inc    %esi
    3e17:	20 30                	and    %dh,(%eax)
    3e19:	00 01                	add    %al,(%ecx)
    3e1b:	7a 5f                	jp     3e7c <_end+0x1e68>
    3e1d:	49                   	dec    %ecx
    3e1e:	4f                   	dec    %edi
    3e1f:	4c                   	dec    %esp
    3e20:	42                   	inc    %edx
    3e21:	46                   	inc    %esi
    3e22:	20 31                	and    %dh,(%ecx)
    3e24:	00 01                	add    %al,(%ecx)
    3e26:	7b 5f                	jnp    3e87 <_end+0x1e73>
    3e28:	49                   	dec    %ecx
    3e29:	4f                   	dec    %edi
    3e2a:	4e                   	dec    %esi
    3e2b:	42                   	inc    %edx
    3e2c:	46                   	inc    %esi
    3e2d:	20 32                	and    %dh,(%edx)
    3e2f:	00 01                	add    %al,(%ecx)
    3e31:	80 01 42             	addb   $0x42,(%ecx)
    3e34:	55                   	push   %ebp
    3e35:	46                   	inc    %esi
    3e36:	53                   	push   %ebx
    3e37:	49                   	dec    %ecx
    3e38:	5a                   	pop    %edx
    3e39:	20 5f 49             	and    %bl,0x49(%edi)
    3e3c:	4f                   	dec    %edi
    3e3d:	5f                   	pop    %edi
    3e3e:	42                   	inc    %edx
    3e3f:	55                   	push   %ebp
    3e40:	46                   	inc    %esi
    3e41:	53                   	push   %ebx
    3e42:	49                   	dec    %ecx
    3e43:	5a                   	pop    %edx
    3e44:	00 01                	add    %al,(%ecx)
    3e46:	8d 01                	lea    (%ecx),%eax
    3e48:	53                   	push   %ebx
    3e49:	45                   	inc    %ebp
    3e4a:	45                   	inc    %ebp
    3e4b:	4b                   	dec    %ebx
    3e4c:	5f                   	pop    %edi
    3e4d:	53                   	push   %ebx
    3e4e:	45                   	inc    %ebp
    3e4f:	54                   	push   %esp
    3e50:	20 30                	and    %dh,(%eax)
    3e52:	00 01                	add    %al,(%ecx)
    3e54:	8e 01                	mov    (%ecx),%es
    3e56:	53                   	push   %ebx
    3e57:	45                   	inc    %ebp
    3e58:	45                   	inc    %ebp
    3e59:	4b                   	dec    %ebx
    3e5a:	5f                   	pop    %edi
    3e5b:	43                   	inc    %ebx
    3e5c:	55                   	push   %ebp
    3e5d:	52                   	push   %edx
    3e5e:	20 31                	and    %dh,(%ecx)
    3e60:	00 01                	add    %al,(%ecx)
    3e62:	8f 01                	popl   (%ecx)
    3e64:	53                   	push   %ebx
    3e65:	45                   	inc    %ebp
    3e66:	45                   	inc    %ebp
    3e67:	4b                   	dec    %ebx
    3e68:	5f                   	pop    %edi
    3e69:	45                   	inc    %ebp
    3e6a:	4e                   	dec    %esi
    3e6b:	44                   	inc    %esp
    3e6c:	20 32                	and    %dh,(%edx)
    3e6e:	00 01                	add    %al,(%ecx)
    3e70:	98                   	cwtl   
    3e71:	01 50 5f             	add    %edx,0x5f(%eax)
    3e74:	74 6d                	je     3ee3 <_end+0x1ecf>
    3e76:	70 64                	jo     3edc <_end+0x1ec8>
    3e78:	69 72 20 22 2f 74 6d 	imul   $0x6d742f22,0x20(%edx),%esi
    3e7f:	70 22                	jo     3ea3 <_end+0x1e8f>
    3e81:	00 03                	add    %al,(%ebx)
    3e83:	a5                   	movsl  %ds:(%esi),%es:(%edi)
    3e84:	01 10                	add    %edx,(%eax)
    3e86:	01 18                	add    %ebx,(%eax)
    3e88:	4c                   	dec    %esp
    3e89:	5f                   	pop    %edi
    3e8a:	74 6d                	je     3ef9 <_end+0x1ee5>
    3e8c:	70 6e                	jo     3efc <_end+0x1ee8>
    3e8e:	61                   	popa   
    3e8f:	6d                   	insl   (%dx),%es:(%edi)
    3e90:	20 32                	and    %dh,(%edx)
    3e92:	30 00                	xor    %al,(%eax)
    3e94:	01 19                	add    %ebx,(%ecx)
    3e96:	54                   	push   %esp
    3e97:	4d                   	dec    %ebp
    3e98:	50                   	push   %eax
    3e99:	5f                   	pop    %edi
    3e9a:	4d                   	dec    %ebp
    3e9b:	41                   	inc    %ecx
    3e9c:	58                   	pop    %eax
    3e9d:	20 32                	and    %dh,(%edx)
    3e9f:	33 38                	xor    (%eax),%edi
    3ea1:	33 32                	xor    (%edx),%esi
    3ea3:	38 00                	cmp    %al,(%eax)
    3ea5:	01 1a                	add    %ebx,(%edx)
    3ea7:	46                   	inc    %esi
    3ea8:	49                   	dec    %ecx
    3ea9:	4c                   	dec    %esp
    3eaa:	45                   	inc    %ebp
    3eab:	4e                   	dec    %esi
    3eac:	41                   	inc    %ecx
    3ead:	4d                   	dec    %ebp
    3eae:	45                   	inc    %ebp
    3eaf:	5f                   	pop    %edi
    3eb0:	4d                   	dec    %ebp
    3eb1:	41                   	inc    %ecx
    3eb2:	58                   	pop    %eax
    3eb3:	20 34 30             	and    %dh,(%eax,%esi,1)
    3eb6:	39 36                	cmp    %esi,(%esi)
    3eb8:	00 01                	add    %al,(%ecx)
    3eba:	1d 4c 5f 63 74       	sbb    $0x74635f4c,%eax
    3ebf:	65                   	gs
    3ec0:	72 6d                	jb     3f2f <_end+0x1f1b>
    3ec2:	69 64 20 39 00 02 25 	imul   $0x46250200,0x39(%eax,%eiz,1),%esp
    3ec9:	46 
    3eca:	4f                   	dec    %edi
    3ecb:	50                   	push   %eax
    3ecc:	45                   	inc    %ebp
    3ecd:	4e                   	dec    %esi
    3ece:	5f                   	pop    %edi
    3ecf:	4d                   	dec    %ebp
    3ed0:	41                   	inc    %ecx
    3ed1:	58                   	pop    %eax
    3ed2:	00 01                	add    %al,(%ecx)
    3ed4:	26                   	es
    3ed5:	46                   	inc    %esi
    3ed6:	4f                   	dec    %edi
    3ed7:	50                   	push   %eax
    3ed8:	45                   	inc    %ebp
    3ed9:	4e                   	dec    %esi
    3eda:	5f                   	pop    %edi
    3edb:	4d                   	dec    %ebp
    3edc:	41                   	inc    %ecx
    3edd:	58                   	pop    %eax
    3ede:	20 31                	and    %dh,(%ecx)
    3ee0:	36 00 04 01          	add    %al,%ss:(%ecx,%eax,1)
    3ee4:	ad                   	lods   %ds:(%esi),%eax
    3ee5:	01 73 74             	add    %esi,0x74(%ebx)
    3ee8:	64 69 6e 20 73 74 64 	imul   $0x69647473,%fs:0x20(%esi),%ebp
    3eef:	69 
    3ef0:	6e                   	outsb  %ds:(%esi),(%dx)
    3ef1:	00 01                	add    %al,(%ecx)
    3ef3:	ae                   	scas   %es:(%edi),%al
    3ef4:	01 73 74             	add    %esi,0x74(%ebx)
    3ef7:	64 6f                	outsl  %fs:(%esi),(%dx)
    3ef9:	75 74                	jne    3f6f <_end+0x1f5b>
    3efb:	20 73 74             	and    %dh,0x74(%ebx)
    3efe:	64 6f                	outsl  %fs:(%esi),(%dx)
    3f00:	75 74                	jne    3f76 <_end+0x1f62>
    3f02:	00 01                	add    %al,(%ecx)
    3f04:	af                   	scas   %es:(%edi),%eax
    3f05:	01 73 74             	add    %esi,0x74(%ebx)
    3f08:	64                   	fs
    3f09:	65                   	gs
    3f0a:	72 72                	jb     3f7e <_end+0x1f6a>
    3f0c:	20 73 74             	and    %dh,0x74(%ebx)
    3f0f:	64                   	fs
    3f10:	65                   	gs
    3f11:	72 72                	jb     3f85 <_end+0x1f71>
    3f13:	00 01                	add    %al,(%ecx)
    3f15:	a5                   	movsl  %ds:(%esi),%es:(%edi)
    3f16:	04 67                	add    $0x67,%al
    3f18:	65                   	gs
    3f19:	74 63                	je     3f7e <_end+0x1f6a>
    3f1b:	28 5f 66             	sub    %bl,0x66(%edi)
    3f1e:	70 29                	jo     3f49 <_end+0x1f35>
    3f20:	20 5f 49             	and    %bl,0x49(%edi)
    3f23:	4f                   	dec    %edi
    3f24:	5f                   	pop    %edi
    3f25:	67                   	addr16
    3f26:	65                   	gs
    3f27:	74 63                	je     3f8c <_end+0x1f78>
    3f29:	20 28                	and    %ch,(%eax)
    3f2b:	5f                   	pop    %edi
    3f2c:	66                   	data16
    3f2d:	70 29                	jo     3f58 <_end+0x1f44>
    3f2f:	00 01                	add    %al,(%ecx)
    3f31:	cf                   	iret   
    3f32:	04 70                	add    $0x70,%al
    3f34:	75 74                	jne    3faa <_end+0x1f96>
    3f36:	63 28                	arpl   %bp,(%eax)
    3f38:	5f                   	pop    %edi
    3f39:	63 68 2c             	arpl   %bp,0x2c(%eax)
    3f3c:	5f                   	pop    %edi
    3f3d:	66                   	data16
    3f3e:	70 29                	jo     3f69 <_end+0x1f55>
    3f40:	20 5f 49             	and    %bl,0x49(%edi)
    3f43:	4f                   	dec    %edi
    3f44:	5f                   	pop    %edi
    3f45:	70 75                	jo     3fbc <_end+0x1fa8>
    3f47:	74 63                	je     3fac <_end+0x1f98>
    3f49:	20 28                	and    %ch,(%eax)
    3f4b:	5f                   	pop    %edi
    3f4c:	63 68 2c             	arpl   %bp,0x2c(%eax)
    3f4f:	20 5f 66             	and    %bl,0x66(%edi)
    3f52:	70 29                	jo     3f7d <_end+0x1f69>
    3f54:	00 03                	add    %al,(%ebx)
    3f56:	d2 06                	rolb   %cl,(%esi)
    3f58:	11 04 04             	adc    %eax,(%esp,%eax,1)
    3f5b:	04 00                	add    $0x0,%al
